
CanSat_2020.elf:     file format elf32-avr

Sections:
Idx Name          Size      VMA       LMA       File off  Algn
  0 .data         000000dc  00800100  00002f5a  00002fee  2**0
                  CONTENTS, ALLOC, LOAD, DATA
  1 .text         00002f5a  00000000  00000000  00000094  2**1
                  CONTENTS, ALLOC, LOAD, READONLY, CODE
  2 .bss          00000025  008001dc  008001dc  000030ca  2**0
                  ALLOC
  3 .comment      0000005c  00000000  00000000  000030ca  2**0
                  CONTENTS, READONLY
  4 .note.gnu.avr.deviceinfo 0000003c  00000000  00000000  00003128  2**2
                  CONTENTS, READONLY
  5 .debug_info   00000780  00000000  00000000  00003164  2**0
                  CONTENTS, READONLY, DEBUGGING
  6 .debug_abbrev 00000718  00000000  00000000  000038e4  2**0
                  CONTENTS, READONLY, DEBUGGING
  7 .debug_line   0000001a  00000000  00000000  00003ffc  2**0
                  CONTENTS, READONLY, DEBUGGING
  8 .debug_str    0000027d  00000000  00000000  00004016  2**0
                  CONTENTS, READONLY, DEBUGGING

Disassembly of section .text:

00000000 <__vectors>:
       0:	0c 94 08 01 	jmp	0x210	; 0x210 <__ctors_end>
       4:	0c 94 27 01 	jmp	0x24e	; 0x24e <__bad_interrupt>
       8:	0c 94 27 01 	jmp	0x24e	; 0x24e <__bad_interrupt>
       c:	0c 94 27 01 	jmp	0x24e	; 0x24e <__bad_interrupt>
      10:	0c 94 27 01 	jmp	0x24e	; 0x24e <__bad_interrupt>
      14:	0c 94 27 01 	jmp	0x24e	; 0x24e <__bad_interrupt>
      18:	0c 94 27 01 	jmp	0x24e	; 0x24e <__bad_interrupt>
      1c:	0c 94 27 01 	jmp	0x24e	; 0x24e <__bad_interrupt>
      20:	0c 94 27 01 	jmp	0x24e	; 0x24e <__bad_interrupt>
      24:	0c 94 27 01 	jmp	0x24e	; 0x24e <__bad_interrupt>
      28:	0c 94 27 01 	jmp	0x24e	; 0x24e <__bad_interrupt>
      2c:	0c 94 27 01 	jmp	0x24e	; 0x24e <__bad_interrupt>
      30:	0c 94 27 01 	jmp	0x24e	; 0x24e <__bad_interrupt>
      34:	0c 94 27 01 	jmp	0x24e	; 0x24e <__bad_interrupt>
      38:	0c 94 27 01 	jmp	0x24e	; 0x24e <__bad_interrupt>
      3c:	0c 94 27 01 	jmp	0x24e	; 0x24e <__bad_interrupt>
      40:	0c 94 27 01 	jmp	0x24e	; 0x24e <__bad_interrupt>
      44:	0c 94 27 01 	jmp	0x24e	; 0x24e <__bad_interrupt>
      48:	0c 94 27 01 	jmp	0x24e	; 0x24e <__bad_interrupt>
      4c:	0c 94 27 01 	jmp	0x24e	; 0x24e <__bad_interrupt>
      50:	0c 94 27 01 	jmp	0x24e	; 0x24e <__bad_interrupt>
      54:	0c 94 27 01 	jmp	0x24e	; 0x24e <__bad_interrupt>
      58:	0c 94 27 01 	jmp	0x24e	; 0x24e <__bad_interrupt>
      5c:	0c 94 27 01 	jmp	0x24e	; 0x24e <__bad_interrupt>
      60:	0c 94 27 01 	jmp	0x24e	; 0x24e <__bad_interrupt>
      64:	0c 94 27 01 	jmp	0x24e	; 0x24e <__bad_interrupt>
      68:	0c 94 27 01 	jmp	0x24e	; 0x24e <__bad_interrupt>
      6c:	0c 94 27 01 	jmp	0x24e	; 0x24e <__bad_interrupt>
      70:	0c 94 27 01 	jmp	0x24e	; 0x24e <__bad_interrupt>
      74:	0c 94 27 01 	jmp	0x24e	; 0x24e <__bad_interrupt>
      78:	0c 94 27 01 	jmp	0x24e	; 0x24e <__bad_interrupt>
      7c:	0c 94 27 01 	jmp	0x24e	; 0x24e <__bad_interrupt>
      80:	0c 94 27 01 	jmp	0x24e	; 0x24e <__bad_interrupt>
      84:	0c 94 27 01 	jmp	0x24e	; 0x24e <__bad_interrupt>
      88:	0c 94 27 01 	jmp	0x24e	; 0x24e <__bad_interrupt>
      8c:	07 63       	ori	r16, 0x37	; 55
      8e:	42 36       	cpi	r20, 0x62	; 98
      90:	b7 9b       	sbis	0x16, 7	; 22
      92:	d8 a7       	std	Y+40, r29	; 0x28
      94:	1a 39       	cpi	r17, 0x9A	; 154
      96:	68 56       	subi	r22, 0x68	; 104
      98:	18 ae       	std	Y+56, r1	; 0x38
      9a:	ba ab       	std	Y+50, r27	; 0x32
      9c:	55 8c       	ldd	r5, Z+29	; 0x1d
      9e:	1d 3c       	cpi	r17, 0xCD	; 205
      a0:	b7 cc       	rjmp	.-1682   	; 0xfffffa10 <__eeprom_end+0xff7efa10>
      a2:	57 63       	ori	r21, 0x37	; 55
      a4:	bd 6d       	ori	r27, 0xDD	; 221
      a6:	ed fd       	.word	0xfded	; ????
      a8:	75 3e       	cpi	r23, 0xE5	; 229
      aa:	f6 17       	cp	r31, r22
      ac:	72 31       	cpi	r23, 0x12	; 18
      ae:	bf 00       	.word	0x00bf	; ????
      b0:	00 00       	nop
      b2:	80 3f       	cpi	r24, 0xF0	; 240
      b4:	08 00       	.word	0x0008	; ????
      b6:	00 00       	nop
      b8:	be 92       	st	-X, r11
      ba:	24 49       	sbci	r18, 0x94	; 148
      bc:	12 3e       	cpi	r17, 0xE2	; 226
      be:	ab aa       	std	Y+51, r10	; 0x33
      c0:	aa 2a       	or	r10, r26
      c2:	be cd       	rjmp	.-1156   	; 0xfffffc40 <__eeprom_end+0xff7efc40>
      c4:	cc cc       	rjmp	.-1640   	; 0xfffffa5e <__eeprom_end+0xff7efa5e>
      c6:	4c 3e       	cpi	r20, 0xEC	; 236
      c8:	00 00       	nop
      ca:	00 80       	ld	r0, Z
      cc:	be ab       	std	Y+54, r27	; 0x36
      ce:	aa aa       	std	Y+50, r10	; 0x32
      d0:	aa 3e       	cpi	r26, 0xEA	; 234
      d2:	00 00       	nop
      d4:	00 00       	nop
      d6:	bf 00       	.word	0x00bf	; ????
      d8:	00 00       	nop
      da:	80 3f       	cpi	r24, 0xF0	; 240
      dc:	00 00       	nop
      de:	00 00       	nop
      e0:	00 08       	sbc	r0, r0
      e2:	41 78       	andi	r20, 0x81	; 129
      e4:	d3 bb       	out	0x13, r29	; 19
      e6:	43 87       	std	Z+11, r20	; 0x0b
      e8:	d1 13       	cpse	r29, r17
      ea:	3d 19       	sub	r19, r13
      ec:	0e 3c       	cpi	r16, 0xCE	; 206
      ee:	c3 bd       	out	0x23, r28	; 35
      f0:	42 82       	std	Z+2, r4	; 0x02
      f2:	ad 2b       	or	r26, r29
      f4:	3e 68       	ori	r19, 0x8E	; 142
      f6:	ec 82       	std	Y+4, r14	; 0x04
      f8:	76 be       	out	0x36, r7	; 54
      fa:	d9 8f       	std	Y+25, r29	; 0x19
      fc:	e1 a9       	ldd	r30, Z+49	; 0x31
      fe:	3e 4c       	sbci	r19, 0xCE	; 206
     100:	80 ef       	ldi	r24, 0xF0	; 240
     102:	ff be       	out	0x3f, r15	; 63
     104:	01 c4       	rjmp	.+2050   	; 0x908 <BMP280_readPressure+0x25a>
     106:	ff 7f       	andi	r31, 0xFF	; 255
     108:	3f 00       	.word	0x003f	; ????
     10a:	00 00       	nop
	...

0000010e <__trampolines_end>:
     10e:	6e 61       	ori	r22, 0x1E	; 30
     110:	6e 00       	.word	0x006e	; ????

00000112 <__c.2240>:
     112:	69 6e 66 00 00 40 7a 10 f3 5a 00 a0 72 4e 18 09     inf..@z..Z..rN..
     122:	00 10 a5 d4 e8 00 00 e8 76 48 17 00 00 e4 0b 54     ........vH.....T
     132:	02 00 00 ca 9a 3b 00 00 00 e1 f5 05 00 00 80 96     .....;..........
     142:	98 00 00 00 40 42 0f 00 00 00 a0 86 01 00 00 00     ....@B..........
     152:	10 27 00 00 00 00 e8 03 00 00 00 00 64 00 00 00     .'..........d...
     162:	00 00 0a 00 00 00 00 00 01 00 00 00 00 00 2c 76     ..............,v
     172:	d8 88 dc 67 4f 08 23 df c1 df ae 59 e1 b1 b7 96     ...gO.#....Y....
     182:	e5 e3 e4 53 c6 3a e6 51 99 76 96 e8 e6 c2 84 26     ...S.:.Q.v.....&
     192:	eb 89 8c 9b 62 ed 40 7c 6f fc ef bc 9c 9f 40 f2     ....b.@|o.....@.
     1a2:	ba a5 6f a5 f4 90 05 5a 2a f7 5c 93 6b 6c f9 67     ..o....Z*.\.kl.g
     1b2:	6d c1 1b fc e0 e4 0d 47 fe f5 20 e6 b5 00 d0 ed     m......G.. .....
     1c2:	90 2e 03 00 94 35 77 05 00 80 84 1e 08 00 00 20     .....5w........ 
     1d2:	4e 0a 00 00 00 c8 0c 33 33 33 33 0f 98 6e 12 83     N......3333..n..
     1e2:	11 41 ef 8d 21 14 89 3b e6 55 16 cf fe e6 db 18     .A..!..;.U......
     1f2:	d1 84 4b 38 1b f7 7c 1d 90 1d a4 bb e4 24 20 32     ..K8..|......$ 2
     202:	84 72 5e 22 81 00 c9 f1 24 ec a1 e5 3d 27           .r^"....$...='

00000210 <__ctors_end>:
     210:	11 24       	eor	r1, r1
     212:	1f be       	out	0x3f, r1	; 63
     214:	cf ef       	ldi	r28, 0xFF	; 255
     216:	d0 e1       	ldi	r29, 0x10	; 16
     218:	de bf       	out	0x3e, r29	; 62
     21a:	cd bf       	out	0x3d, r28	; 61

0000021c <__do_copy_data>:
     21c:	11 e0       	ldi	r17, 0x01	; 1
     21e:	a0 e0       	ldi	r26, 0x00	; 0
     220:	b1 e0       	ldi	r27, 0x01	; 1
     222:	ea e5       	ldi	r30, 0x5A	; 90
     224:	ff e2       	ldi	r31, 0x2F	; 47
     226:	00 e0       	ldi	r16, 0x00	; 0
     228:	0b bf       	out	0x3b, r16	; 59
     22a:	02 c0       	rjmp	.+4      	; 0x230 <__do_copy_data+0x14>
     22c:	07 90       	elpm	r0, Z+
     22e:	0d 92       	st	X+, r0
     230:	ac 3d       	cpi	r26, 0xDC	; 220
     232:	b1 07       	cpc	r27, r17
     234:	d9 f7       	brne	.-10     	; 0x22c <__do_copy_data+0x10>

00000236 <__do_clear_bss>:
     236:	22 e0       	ldi	r18, 0x02	; 2
     238:	ac ed       	ldi	r26, 0xDC	; 220
     23a:	b1 e0       	ldi	r27, 0x01	; 1
     23c:	01 c0       	rjmp	.+2      	; 0x240 <.do_clear_bss_start>

0000023e <.do_clear_bss_loop>:
     23e:	1d 92       	st	X+, r1

00000240 <.do_clear_bss_start>:
     240:	a1 30       	cpi	r26, 0x01	; 1
     242:	b2 07       	cpc	r27, r18
     244:	e1 f7       	brne	.-8      	; 0x23e <.do_clear_bss_loop>
     246:	0e 94 b7 09 	call	0x136e	; 0x136e <main>
     24a:	0c 94 ab 17 	jmp	0x2f56	; 0x2f56 <_exit>

0000024e <__bad_interrupt>:
     24e:	0c 94 00 00 	jmp	0	; 0x0 <__vectors>

00000252 <ADXL345_searchDevice>:
     252:	cf 93       	push	r28
     254:	df 93       	push	r29
     256:	1f 92       	push	r1
     258:	cd b7       	in	r28, 0x3d	; 61
     25a:	de b7       	in	r29, 0x3e	; 62
     25c:	19 82       	std	Y+1, r1	; 0x01
     25e:	9e 01       	movw	r18, r28
     260:	2f 5f       	subi	r18, 0xFF	; 255
     262:	3f 4f       	sbci	r19, 0xFF	; 255
     264:	41 e0       	ldi	r20, 0x01	; 1
     266:	60 e0       	ldi	r22, 0x00	; 0
     268:	80 91 dd 01 	lds	r24, 0x01DD	; 0x8001dd <ADXL345_dev_addr>
     26c:	0e 94 74 09 	call	0x12e8	; 0x12e8 <I2CReadBytes>
     270:	81 e0       	ldi	r24, 0x01	; 1
     272:	99 81       	ldd	r25, Y+1	; 0x01
     274:	95 3e       	cpi	r25, 0xE5	; 229
     276:	09 f0       	breq	.+2      	; 0x27a <ADXL345_searchDevice+0x28>
     278:	80 e0       	ldi	r24, 0x00	; 0
     27a:	0f 90       	pop	r0
     27c:	df 91       	pop	r29
     27e:	cf 91       	pop	r28
     280:	08 95       	ret

00000282 <ADXL345_configuration>:
     282:	4b e0       	ldi	r20, 0x0B	; 11
     284:	61 e3       	ldi	r22, 0x31	; 49
     286:	80 91 dd 01 	lds	r24, 0x01DD	; 0x8001dd <ADXL345_dev_addr>
     28a:	0c 94 49 09 	jmp	0x1292	; 0x1292 <I2CWriteRegister>

0000028e <ADXL345_powerOn>:
     28e:	48 e0       	ldi	r20, 0x08	; 8
     290:	6d e2       	ldi	r22, 0x2D	; 45
     292:	80 91 dd 01 	lds	r24, 0x01DD	; 0x8001dd <ADXL345_dev_addr>
     296:	0c 94 49 09 	jmp	0x1292	; 0x1292 <I2CWriteRegister>

0000029a <ADXL345_begin>:
     29a:	80 93 dd 01 	sts	0x01DD, r24	; 0x8001dd <ADXL345_dev_addr>
     29e:	0e 94 29 01 	call	0x252	; 0x252 <ADXL345_searchDevice>
     2a2:	88 23       	and	r24, r24
     2a4:	59 f0       	breq	.+22     	; 0x2bc <ADXL345_begin+0x22>
     2a6:	48 e0       	ldi	r20, 0x08	; 8
     2a8:	6c e2       	ldi	r22, 0x2C	; 44
     2aa:	80 91 dd 01 	lds	r24, 0x01DD	; 0x8001dd <ADXL345_dev_addr>
     2ae:	0e 94 49 09 	call	0x1292	; 0x1292 <I2CWriteRegister>
     2b2:	0e 94 41 01 	call	0x282	; 0x282 <ADXL345_configuration>
     2b6:	0e 94 47 01 	call	0x28e	; 0x28e <ADXL345_powerOn>
     2ba:	81 e0       	ldi	r24, 0x01	; 1
     2bc:	08 95       	ret

000002be <ADXL345_readXYZ_raw>:
     2be:	cf 92       	push	r12
     2c0:	df 92       	push	r13
     2c2:	ef 92       	push	r14
     2c4:	ff 92       	push	r15
     2c6:	0f 93       	push	r16
     2c8:	1f 93       	push	r17
     2ca:	cf 93       	push	r28
     2cc:	df 93       	push	r29
     2ce:	00 d0       	rcall	.+0      	; 0x2d0 <ADXL345_readXYZ_raw+0x12>
     2d0:	00 d0       	rcall	.+0      	; 0x2d2 <ADXL345_readXYZ_raw+0x14>
     2d2:	00 d0       	rcall	.+0      	; 0x2d4 <ADXL345_readXYZ_raw+0x16>
     2d4:	cd b7       	in	r28, 0x3d	; 61
     2d6:	de b7       	in	r29, 0x3e	; 62
     2d8:	6c 01       	movw	r12, r24
     2da:	7b 01       	movw	r14, r22
     2dc:	8a 01       	movw	r16, r20
     2de:	9e 01       	movw	r18, r28
     2e0:	2f 5f       	subi	r18, 0xFF	; 255
     2e2:	3f 4f       	sbci	r19, 0xFF	; 255
     2e4:	46 e0       	ldi	r20, 0x06	; 6
     2e6:	62 e3       	ldi	r22, 0x32	; 50
     2e8:	80 91 dd 01 	lds	r24, 0x01DD	; 0x8001dd <ADXL345_dev_addr>
     2ec:	0e 94 74 09 	call	0x12e8	; 0x12e8 <I2CReadBytes>
     2f0:	2a 81       	ldd	r18, Y+2	; 0x02
     2f2:	30 e0       	ldi	r19, 0x00	; 0
     2f4:	32 2f       	mov	r19, r18
     2f6:	22 27       	eor	r18, r18
     2f8:	89 81       	ldd	r24, Y+1	; 0x01
     2fa:	28 2b       	or	r18, r24
     2fc:	f6 01       	movw	r30, r12
     2fe:	31 83       	std	Z+1, r19	; 0x01
     300:	20 83       	st	Z, r18
     302:	8c 81       	ldd	r24, Y+4	; 0x04
     304:	90 e0       	ldi	r25, 0x00	; 0
     306:	98 2f       	mov	r25, r24
     308:	88 27       	eor	r24, r24
     30a:	2b 81       	ldd	r18, Y+3	; 0x03
     30c:	82 2b       	or	r24, r18
     30e:	f7 01       	movw	r30, r14
     310:	91 83       	std	Z+1, r25	; 0x01
     312:	80 83       	st	Z, r24
     314:	8e 81       	ldd	r24, Y+6	; 0x06
     316:	90 e0       	ldi	r25, 0x00	; 0
     318:	98 2f       	mov	r25, r24
     31a:	88 27       	eor	r24, r24
     31c:	2d 81       	ldd	r18, Y+5	; 0x05
     31e:	82 2b       	or	r24, r18
     320:	f8 01       	movw	r30, r16
     322:	91 83       	std	Z+1, r25	; 0x01
     324:	80 83       	st	Z, r24
     326:	81 e0       	ldi	r24, 0x01	; 1
     328:	90 e0       	ldi	r25, 0x00	; 0
     32a:	26 96       	adiw	r28, 0x06	; 6
     32c:	0f b6       	in	r0, 0x3f	; 63
     32e:	f8 94       	cli
     330:	de bf       	out	0x3e, r29	; 62
     332:	0f be       	out	0x3f, r0	; 63
     334:	cd bf       	out	0x3d, r28	; 61
     336:	df 91       	pop	r29
     338:	cf 91       	pop	r28
     33a:	1f 91       	pop	r17
     33c:	0f 91       	pop	r16
     33e:	ff 90       	pop	r15
     340:	ef 90       	pop	r14
     342:	df 90       	pop	r13
     344:	cf 90       	pop	r12
     346:	08 95       	ret

00000348 <ADXL345_readXYZ>:
     348:	cf 92       	push	r12
     34a:	df 92       	push	r13
     34c:	ef 92       	push	r14
     34e:	ff 92       	push	r15
     350:	0f 93       	push	r16
     352:	1f 93       	push	r17
     354:	cf 93       	push	r28
     356:	df 93       	push	r29
     358:	00 d0       	rcall	.+0      	; 0x35a <ADXL345_readXYZ+0x12>
     35a:	00 d0       	rcall	.+0      	; 0x35c <ADXL345_readXYZ+0x14>
     35c:	00 d0       	rcall	.+0      	; 0x35e <ADXL345_readXYZ+0x16>
     35e:	cd b7       	in	r28, 0x3d	; 61
     360:	de b7       	in	r29, 0x3e	; 62
     362:	6c 01       	movw	r12, r24
     364:	7b 01       	movw	r14, r22
     366:	8a 01       	movw	r16, r20
     368:	ae 01       	movw	r20, r28
     36a:	4f 5f       	subi	r20, 0xFF	; 255
     36c:	5f 4f       	sbci	r21, 0xFF	; 255
     36e:	be 01       	movw	r22, r28
     370:	6d 5f       	subi	r22, 0xFD	; 253
     372:	7f 4f       	sbci	r23, 0xFF	; 255
     374:	ce 01       	movw	r24, r28
     376:	05 96       	adiw	r24, 0x05	; 5
     378:	0e 94 5f 01 	call	0x2be	; 0x2be <ADXL345_readXYZ_raw>
     37c:	6d 81       	ldd	r22, Y+5	; 0x05
     37e:	7e 81       	ldd	r23, Y+6	; 0x06
     380:	07 2e       	mov	r0, r23
     382:	00 0c       	add	r0, r0
     384:	88 0b       	sbc	r24, r24
     386:	99 0b       	sbc	r25, r25
     388:	0e 94 f4 12 	call	0x25e8	; 0x25e8 <__floatsisf>
     38c:	2d ec       	ldi	r18, 0xCD	; 205
     38e:	3c ec       	ldi	r19, 0xCC	; 204
     390:	4c e1       	ldi	r20, 0x1C	; 28
     392:	5d e3       	ldi	r21, 0x3D	; 61
     394:	0e 94 a4 13 	call	0x2748	; 0x2748 <__mulsf3>
     398:	f6 01       	movw	r30, r12
     39a:	60 83       	st	Z, r22
     39c:	71 83       	std	Z+1, r23	; 0x01
     39e:	82 83       	std	Z+2, r24	; 0x02
     3a0:	93 83       	std	Z+3, r25	; 0x03
     3a2:	6b 81       	ldd	r22, Y+3	; 0x03
     3a4:	7c 81       	ldd	r23, Y+4	; 0x04
     3a6:	07 2e       	mov	r0, r23
     3a8:	00 0c       	add	r0, r0
     3aa:	88 0b       	sbc	r24, r24
     3ac:	99 0b       	sbc	r25, r25
     3ae:	0e 94 f4 12 	call	0x25e8	; 0x25e8 <__floatsisf>
     3b2:	2d ec       	ldi	r18, 0xCD	; 205
     3b4:	3c ec       	ldi	r19, 0xCC	; 204
     3b6:	4c e1       	ldi	r20, 0x1C	; 28
     3b8:	5d e3       	ldi	r21, 0x3D	; 61
     3ba:	0e 94 a4 13 	call	0x2748	; 0x2748 <__mulsf3>
     3be:	f7 01       	movw	r30, r14
     3c0:	60 83       	st	Z, r22
     3c2:	71 83       	std	Z+1, r23	; 0x01
     3c4:	82 83       	std	Z+2, r24	; 0x02
     3c6:	93 83       	std	Z+3, r25	; 0x03
     3c8:	69 81       	ldd	r22, Y+1	; 0x01
     3ca:	7a 81       	ldd	r23, Y+2	; 0x02
     3cc:	07 2e       	mov	r0, r23
     3ce:	00 0c       	add	r0, r0
     3d0:	88 0b       	sbc	r24, r24
     3d2:	99 0b       	sbc	r25, r25
     3d4:	0e 94 f4 12 	call	0x25e8	; 0x25e8 <__floatsisf>
     3d8:	2d ec       	ldi	r18, 0xCD	; 205
     3da:	3c ec       	ldi	r19, 0xCC	; 204
     3dc:	4c e1       	ldi	r20, 0x1C	; 28
     3de:	5d e3       	ldi	r21, 0x3D	; 61
     3e0:	0e 94 a4 13 	call	0x2748	; 0x2748 <__mulsf3>
     3e4:	f8 01       	movw	r30, r16
     3e6:	60 83       	st	Z, r22
     3e8:	71 83       	std	Z+1, r23	; 0x01
     3ea:	82 83       	std	Z+2, r24	; 0x02
     3ec:	93 83       	std	Z+3, r25	; 0x03
     3ee:	81 e0       	ldi	r24, 0x01	; 1
     3f0:	90 e0       	ldi	r25, 0x00	; 0
     3f2:	26 96       	adiw	r28, 0x06	; 6
     3f4:	0f b6       	in	r0, 0x3f	; 63
     3f6:	f8 94       	cli
     3f8:	de bf       	out	0x3e, r29	; 62
     3fa:	0f be       	out	0x3f, r0	; 63
     3fc:	cd bf       	out	0x3d, r28	; 61
     3fe:	df 91       	pop	r29
     400:	cf 91       	pop	r28
     402:	1f 91       	pop	r17
     404:	0f 91       	pop	r16
     406:	ff 90       	pop	r15
     408:	ef 90       	pop	r14
     40a:	df 90       	pop	r13
     40c:	cf 90       	pop	r12
     40e:	08 95       	ret

00000410 <BMP280_write8>:
     410:	46 2f       	mov	r20, r22
     412:	68 2f       	mov	r22, r24
     414:	80 91 e8 01 	lds	r24, 0x01E8	; 0x8001e8 <BMP280_dev_addr>
     418:	0c 94 49 09 	jmp	0x1292	; 0x1292 <I2CWriteRegister>

0000041c <BMP280_read8>:
     41c:	cf 93       	push	r28
     41e:	df 93       	push	r29
     420:	1f 92       	push	r1
     422:	cd b7       	in	r28, 0x3d	; 61
     424:	de b7       	in	r29, 0x3e	; 62
     426:	9e 01       	movw	r18, r28
     428:	2f 5f       	subi	r18, 0xFF	; 255
     42a:	3f 4f       	sbci	r19, 0xFF	; 255
     42c:	41 e0       	ldi	r20, 0x01	; 1
     42e:	68 2f       	mov	r22, r24
     430:	80 91 e8 01 	lds	r24, 0x01E8	; 0x8001e8 <BMP280_dev_addr>
     434:	0e 94 74 09 	call	0x12e8	; 0x12e8 <I2CReadBytes>
     438:	89 81       	ldd	r24, Y+1	; 0x01
     43a:	0f 90       	pop	r0
     43c:	df 91       	pop	r29
     43e:	cf 91       	pop	r28
     440:	08 95       	ret

00000442 <BMP280_read16>:
     442:	cf 93       	push	r28
     444:	df 93       	push	r29
     446:	00 d0       	rcall	.+0      	; 0x448 <BMP280_read16+0x6>
     448:	cd b7       	in	r28, 0x3d	; 61
     44a:	de b7       	in	r29, 0x3e	; 62
     44c:	9e 01       	movw	r18, r28
     44e:	2f 5f       	subi	r18, 0xFF	; 255
     450:	3f 4f       	sbci	r19, 0xFF	; 255
     452:	42 e0       	ldi	r20, 0x02	; 2
     454:	68 2f       	mov	r22, r24
     456:	80 91 e8 01 	lds	r24, 0x01E8	; 0x8001e8 <BMP280_dev_addr>
     45a:	0e 94 74 09 	call	0x12e8	; 0x12e8 <I2CReadBytes>
     45e:	89 81       	ldd	r24, Y+1	; 0x01
     460:	90 e0       	ldi	r25, 0x00	; 0
     462:	98 2f       	mov	r25, r24
     464:	88 27       	eor	r24, r24
     466:	2a 81       	ldd	r18, Y+2	; 0x02
     468:	82 2b       	or	r24, r18
     46a:	0f 90       	pop	r0
     46c:	0f 90       	pop	r0
     46e:	df 91       	pop	r29
     470:	cf 91       	pop	r28
     472:	08 95       	ret

00000474 <BMP280_read16_LE>:
     474:	0e 94 21 02 	call	0x442	; 0x442 <BMP280_read16>
     478:	98 27       	eor	r25, r24
     47a:	89 27       	eor	r24, r25
     47c:	98 27       	eor	r25, r24
     47e:	08 95       	ret

00000480 <BMP280_readS16_LE>:
     480:	0c 94 3a 02 	jmp	0x474	; 0x474 <BMP280_read16_LE>

00000484 <BMP280_read24>:
     484:	cf 93       	push	r28
     486:	df 93       	push	r29
     488:	00 d0       	rcall	.+0      	; 0x48a <BMP280_read24+0x6>
     48a:	1f 92       	push	r1
     48c:	cd b7       	in	r28, 0x3d	; 61
     48e:	de b7       	in	r29, 0x3e	; 62
     490:	9e 01       	movw	r18, r28
     492:	2f 5f       	subi	r18, 0xFF	; 255
     494:	3f 4f       	sbci	r19, 0xFF	; 255
     496:	43 e0       	ldi	r20, 0x03	; 3
     498:	68 2f       	mov	r22, r24
     49a:	80 91 e8 01 	lds	r24, 0x01E8	; 0x8001e8 <BMP280_dev_addr>
     49e:	0e 94 74 09 	call	0x12e8	; 0x12e8 <I2CReadBytes>
     4a2:	69 81       	ldd	r22, Y+1	; 0x01
     4a4:	86 2f       	mov	r24, r22
     4a6:	90 e0       	ldi	r25, 0x00	; 0
     4a8:	a0 e0       	ldi	r26, 0x00	; 0
     4aa:	b0 e0       	ldi	r27, 0x00	; 0
     4ac:	ba 2f       	mov	r27, r26
     4ae:	a9 2f       	mov	r26, r25
     4b0:	98 2f       	mov	r25, r24
     4b2:	88 27       	eor	r24, r24
     4b4:	2a 81       	ldd	r18, Y+2	; 0x02
     4b6:	82 2b       	or	r24, r18
     4b8:	ba 2f       	mov	r27, r26
     4ba:	a9 2f       	mov	r26, r25
     4bc:	98 2f       	mov	r25, r24
     4be:	88 27       	eor	r24, r24
     4c0:	2b 81       	ldd	r18, Y+3	; 0x03
     4c2:	bc 01       	movw	r22, r24
     4c4:	cd 01       	movw	r24, r26
     4c6:	62 2b       	or	r22, r18
     4c8:	0f 90       	pop	r0
     4ca:	0f 90       	pop	r0
     4cc:	0f 90       	pop	r0
     4ce:	df 91       	pop	r29
     4d0:	cf 91       	pop	r28
     4d2:	08 95       	ret

000004d4 <BMP280_readCoefficients>:
     4d4:	88 e8       	ldi	r24, 0x88	; 136
     4d6:	0e 94 3a 02 	call	0x474	; 0x474 <BMP280_read16_LE>
     4da:	90 93 e1 01 	sts	0x01E1, r25	; 0x8001e1 <dig_T1+0x1>
     4de:	80 93 e0 01 	sts	0x01E0, r24	; 0x8001e0 <dig_T1>
     4e2:	8a e8       	ldi	r24, 0x8A	; 138
     4e4:	0e 94 3a 02 	call	0x474	; 0x474 <BMP280_read16_LE>
     4e8:	90 93 e3 01 	sts	0x01E3, r25	; 0x8001e3 <dig_T2+0x1>
     4ec:	80 93 e2 01 	sts	0x01E2, r24	; 0x8001e2 <dig_T2>
     4f0:	8c e8       	ldi	r24, 0x8C	; 140
     4f2:	0e 94 3a 02 	call	0x474	; 0x474 <BMP280_read16_LE>
     4f6:	90 93 f4 01 	sts	0x01F4, r25	; 0x8001f4 <dig_T3+0x1>
     4fa:	80 93 f3 01 	sts	0x01F3, r24	; 0x8001f3 <dig_T3>
     4fe:	8e e8       	ldi	r24, 0x8E	; 142
     500:	0e 94 3a 02 	call	0x474	; 0x474 <BMP280_read16_LE>
     504:	90 93 ec 01 	sts	0x01EC, r25	; 0x8001ec <dig_P1+0x1>
     508:	80 93 eb 01 	sts	0x01EB, r24	; 0x8001eb <dig_P1>
     50c:	80 e9       	ldi	r24, 0x90	; 144
     50e:	0e 94 3a 02 	call	0x474	; 0x474 <BMP280_read16_LE>
     512:	90 93 e5 01 	sts	0x01E5, r25	; 0x8001e5 <dig_P2+0x1>
     516:	80 93 e4 01 	sts	0x01E4, r24	; 0x8001e4 <dig_P2>
     51a:	82 e9       	ldi	r24, 0x92	; 146
     51c:	0e 94 3a 02 	call	0x474	; 0x474 <BMP280_read16_LE>
     520:	90 93 ee 01 	sts	0x01EE, r25	; 0x8001ee <dig_P3+0x1>
     524:	80 93 ed 01 	sts	0x01ED, r24	; 0x8001ed <dig_P3>
     528:	84 e9       	ldi	r24, 0x94	; 148
     52a:	0e 94 3a 02 	call	0x474	; 0x474 <BMP280_read16_LE>
     52e:	90 93 e7 01 	sts	0x01E7, r25	; 0x8001e7 <dig_P4+0x1>
     532:	80 93 e6 01 	sts	0x01E6, r24	; 0x8001e6 <dig_P4>
     536:	86 e9       	ldi	r24, 0x96	; 150
     538:	0e 94 3a 02 	call	0x474	; 0x474 <BMP280_read16_LE>
     53c:	90 93 ea 01 	sts	0x01EA, r25	; 0x8001ea <dig_P5+0x1>
     540:	80 93 e9 01 	sts	0x01E9, r24	; 0x8001e9 <dig_P5>
     544:	88 e9       	ldi	r24, 0x98	; 152
     546:	0e 94 3a 02 	call	0x474	; 0x474 <BMP280_read16_LE>
     54a:	90 93 f6 01 	sts	0x01F6, r25	; 0x8001f6 <dig_P6+0x1>
     54e:	80 93 f5 01 	sts	0x01F5, r24	; 0x8001f5 <dig_P6>
     552:	8a e9       	ldi	r24, 0x9A	; 154
     554:	0e 94 3a 02 	call	0x474	; 0x474 <BMP280_read16_LE>
     558:	90 93 df 01 	sts	0x01DF, r25	; 0x8001df <dig_P7+0x1>
     55c:	80 93 de 01 	sts	0x01DE, r24	; 0x8001de <dig_P7>
     560:	8c e9       	ldi	r24, 0x9C	; 156
     562:	0e 94 3a 02 	call	0x474	; 0x474 <BMP280_read16_LE>
     566:	90 93 f0 01 	sts	0x01F0, r25	; 0x8001f0 <dig_P8+0x1>
     56a:	80 93 ef 01 	sts	0x01EF, r24	; 0x8001ef <dig_P8>
     56e:	8e e9       	ldi	r24, 0x9E	; 158
     570:	0e 94 3a 02 	call	0x474	; 0x474 <BMP280_read16_LE>
     574:	90 93 f2 01 	sts	0x01F2, r25	; 0x8001f2 <dig_P9+0x1>
     578:	80 93 f1 01 	sts	0x01F1, r24	; 0x8001f1 <dig_P9>
     57c:	08 95       	ret

0000057e <BMP280_begin>:
     57e:	80 93 e8 01 	sts	0x01E8, r24	; 0x8001e8 <BMP280_dev_addr>
     582:	80 ed       	ldi	r24, 0xD0	; 208
     584:	0e 94 0e 02 	call	0x41c	; 0x41c <BMP280_read8>
     588:	88 35       	cpi	r24, 0x58	; 88
     58a:	41 f4       	brne	.+16     	; 0x59c <BMP280_begin+0x1e>
     58c:	0e 94 6a 02 	call	0x4d4	; 0x4d4 <BMP280_readCoefficients>
     590:	68 e6       	ldi	r22, 0x68	; 104
     592:	85 ef       	ldi	r24, 0xF5	; 245
     594:	0e 94 08 02 	call	0x410	; 0x410 <BMP280_write8>
     598:	81 e0       	ldi	r24, 0x01	; 1
     59a:	08 95       	ret
     59c:	80 e0       	ldi	r24, 0x00	; 0
     59e:	08 95       	ret

000005a0 <BMP280_readTemperature>:
     5a0:	8f 92       	push	r8
     5a2:	9f 92       	push	r9
     5a4:	af 92       	push	r10
     5a6:	bf 92       	push	r11
     5a8:	cf 92       	push	r12
     5aa:	df 92       	push	r13
     5ac:	ef 92       	push	r14
     5ae:	ff 92       	push	r15
     5b0:	8a ef       	ldi	r24, 0xFA	; 250
     5b2:	0e 94 42 02 	call	0x484	; 0x484 <BMP280_read24>
     5b6:	40 91 e0 01 	lds	r20, 0x01E0	; 0x8001e0 <dig_T1>
     5ba:	50 91 e1 01 	lds	r21, 0x01E1	; 0x8001e1 <dig_T1+0x1>
     5be:	4a 01       	movw	r8, r20
     5c0:	a1 2c       	mov	r10, r1
     5c2:	b1 2c       	mov	r11, r1
     5c4:	c7 2e       	mov	r12, r23
     5c6:	d8 2e       	mov	r13, r24
     5c8:	e9 2e       	mov	r14, r25
     5ca:	ff 24       	eor	r15, r15
     5cc:	e7 fc       	sbrc	r14, 7
     5ce:	fa 94       	dec	r15
     5d0:	c8 18       	sub	r12, r8
     5d2:	d9 08       	sbc	r13, r9
     5d4:	ea 08       	sbc	r14, r10
     5d6:	fb 08       	sbc	r15, r11
     5d8:	dc 01       	movw	r26, r24
     5da:	cb 01       	movw	r24, r22
     5dc:	37 e0       	ldi	r19, 0x07	; 7
     5de:	b5 95       	asr	r27
     5e0:	a7 95       	ror	r26
     5e2:	97 95       	ror	r25
     5e4:	87 95       	ror	r24
     5e6:	3a 95       	dec	r19
     5e8:	d1 f7       	brne	.-12     	; 0x5de <BMP280_readTemperature+0x3e>
     5ea:	b5 01       	movw	r22, r10
     5ec:	a4 01       	movw	r20, r8
     5ee:	44 0f       	add	r20, r20
     5f0:	55 1f       	adc	r21, r21
     5f2:	66 1f       	adc	r22, r22
     5f4:	77 1f       	adc	r23, r23
     5f6:	4c 01       	movw	r8, r24
     5f8:	5d 01       	movw	r10, r26
     5fa:	84 1a       	sub	r8, r20
     5fc:	95 0a       	sbc	r9, r21
     5fe:	a6 0a       	sbc	r10, r22
     600:	b7 0a       	sbc	r11, r23
     602:	a5 01       	movw	r20, r10
     604:	94 01       	movw	r18, r8
     606:	a0 91 e2 01 	lds	r26, 0x01E2	; 0x8001e2 <dig_T2>
     60a:	b0 91 e3 01 	lds	r27, 0x01E3	; 0x8001e3 <dig_T2+0x1>
     60e:	0e 94 c9 11 	call	0x2392	; 0x2392 <__mulshisi3>
     612:	4b 01       	movw	r8, r22
     614:	5c 01       	movw	r10, r24
     616:	fb e0       	ldi	r31, 0x0B	; 11
     618:	b5 94       	asr	r11
     61a:	a7 94       	ror	r10
     61c:	97 94       	ror	r9
     61e:	87 94       	ror	r8
     620:	fa 95       	dec	r31
     622:	d1 f7       	brne	.-12     	; 0x618 <BMP280_readTemperature+0x78>
     624:	a7 01       	movw	r20, r14
     626:	96 01       	movw	r18, r12
     628:	c7 01       	movw	r24, r14
     62a:	b6 01       	movw	r22, r12
     62c:	0e 94 78 11 	call	0x22f0	; 0x22f0 <__mulsi3>
     630:	9b 01       	movw	r18, r22
     632:	ac 01       	movw	r20, r24
     634:	ac e0       	ldi	r26, 0x0C	; 12
     636:	55 95       	asr	r21
     638:	47 95       	ror	r20
     63a:	37 95       	ror	r19
     63c:	27 95       	ror	r18
     63e:	aa 95       	dec	r26
     640:	d1 f7       	brne	.-12     	; 0x636 <BMP280_readTemperature+0x96>
     642:	a0 91 f3 01 	lds	r26, 0x01F3	; 0x8001f3 <dig_T3>
     646:	b0 91 f4 01 	lds	r27, 0x01F4	; 0x8001f4 <dig_T3+0x1>
     64a:	0e 94 c9 11 	call	0x2392	; 0x2392 <__mulshisi3>
     64e:	dc 01       	movw	r26, r24
     650:	cb 01       	movw	r24, r22
     652:	2e e0       	ldi	r18, 0x0E	; 14
     654:	b5 95       	asr	r27
     656:	a7 95       	ror	r26
     658:	97 95       	ror	r25
     65a:	87 95       	ror	r24
     65c:	2a 95       	dec	r18
     65e:	d1 f7       	brne	.-12     	; 0x654 <BMP280_readTemperature+0xb4>
     660:	a5 01       	movw	r20, r10
     662:	94 01       	movw	r18, r8
     664:	28 0f       	add	r18, r24
     666:	39 1f       	adc	r19, r25
     668:	4a 1f       	adc	r20, r26
     66a:	5b 1f       	adc	r21, r27
     66c:	20 93 f7 01 	sts	0x01F7, r18	; 0x8001f7 <t_fine>
     670:	30 93 f8 01 	sts	0x01F8, r19	; 0x8001f8 <t_fine+0x1>
     674:	40 93 f9 01 	sts	0x01F9, r20	; 0x8001f9 <t_fine+0x2>
     678:	50 93 fa 01 	sts	0x01FA, r21	; 0x8001fa <t_fine+0x3>
     67c:	a5 e0       	ldi	r26, 0x05	; 5
     67e:	b0 e0       	ldi	r27, 0x00	; 0
     680:	0e 94 be 11 	call	0x237c	; 0x237c <__muluhisi3>
     684:	dc 01       	movw	r26, r24
     686:	cb 01       	movw	r24, r22
     688:	80 58       	subi	r24, 0x80	; 128
     68a:	9f 4f       	sbci	r25, 0xFF	; 255
     68c:	af 4f       	sbci	r26, 0xFF	; 255
     68e:	bf 4f       	sbci	r27, 0xFF	; 255
     690:	69 2f       	mov	r22, r25
     692:	7a 2f       	mov	r23, r26
     694:	8b 2f       	mov	r24, r27
     696:	99 27       	eor	r25, r25
     698:	87 fd       	sbrc	r24, 7
     69a:	9a 95       	dec	r25
     69c:	ff 90       	pop	r15
     69e:	ef 90       	pop	r14
     6a0:	df 90       	pop	r13
     6a2:	cf 90       	pop	r12
     6a4:	bf 90       	pop	r11
     6a6:	af 90       	pop	r10
     6a8:	9f 90       	pop	r9
     6aa:	8f 90       	pop	r8
     6ac:	08 95       	ret

000006ae <BMP280_readPressure>:
     6ae:	2f 92       	push	r2
     6b0:	3f 92       	push	r3
     6b2:	4f 92       	push	r4
     6b4:	5f 92       	push	r5
     6b6:	6f 92       	push	r6
     6b8:	7f 92       	push	r7
     6ba:	8f 92       	push	r8
     6bc:	9f 92       	push	r9
     6be:	af 92       	push	r10
     6c0:	bf 92       	push	r11
     6c2:	cf 92       	push	r12
     6c4:	df 92       	push	r13
     6c6:	ef 92       	push	r14
     6c8:	ff 92       	push	r15
     6ca:	0f 93       	push	r16
     6cc:	1f 93       	push	r17
     6ce:	cf 93       	push	r28
     6d0:	df 93       	push	r29
     6d2:	cd b7       	in	r28, 0x3d	; 61
     6d4:	de b7       	in	r29, 0x3e	; 62
     6d6:	28 97       	sbiw	r28, 0x08	; 8
     6d8:	0f b6       	in	r0, 0x3f	; 63
     6da:	f8 94       	cli
     6dc:	de bf       	out	0x3e, r29	; 62
     6de:	0f be       	out	0x3f, r0	; 63
     6e0:	cd bf       	out	0x3d, r28	; 61
     6e2:	0e 94 d0 02 	call	0x5a0	; 0x5a0 <BMP280_readTemperature>
     6e6:	87 ef       	ldi	r24, 0xF7	; 247
     6e8:	0e 94 42 02 	call	0x484	; 0x484 <BMP280_read24>
     6ec:	69 83       	std	Y+1, r22	; 0x01
     6ee:	7a 83       	std	Y+2, r23	; 0x02
     6f0:	8b 83       	std	Y+3, r24	; 0x03
     6f2:	9c 83       	std	Y+4, r25	; 0x04
     6f4:	80 90 f7 01 	lds	r8, 0x01F7	; 0x8001f7 <t_fine>
     6f8:	90 90 f8 01 	lds	r9, 0x01F8	; 0x8001f8 <t_fine+0x1>
     6fc:	a0 90 f9 01 	lds	r10, 0x01F9	; 0x8001f9 <t_fine+0x2>
     700:	b0 90 fa 01 	lds	r11, 0x01FA	; 0x8001fa <t_fine+0x3>
     704:	b5 94       	asr	r11
     706:	a7 94       	ror	r10
     708:	97 94       	ror	r9
     70a:	87 94       	ror	r8
     70c:	2a ef       	ldi	r18, 0xFA	; 250
     70e:	92 1a       	sub	r9, r18
     710:	a1 08       	sbc	r10, r1
     712:	b1 08       	sbc	r11, r1
     714:	c5 01       	movw	r24, r10
     716:	b4 01       	movw	r22, r8
     718:	e2 e0       	ldi	r30, 0x02	; 2
     71a:	95 95       	asr	r25
     71c:	87 95       	ror	r24
     71e:	77 95       	ror	r23
     720:	67 95       	ror	r22
     722:	ea 95       	dec	r30
     724:	d1 f7       	brne	.-12     	; 0x71a <BMP280_readPressure+0x6c>
     726:	9b 01       	movw	r18, r22
     728:	ac 01       	movw	r20, r24
     72a:	0e 94 78 11 	call	0x22f0	; 0x22f0 <__mulsi3>
     72e:	6b 01       	movw	r12, r22
     730:	7c 01       	movw	r14, r24
     732:	e0 91 f5 01 	lds	r30, 0x01F5	; 0x8001f5 <dig_P6>
     736:	f0 91 f6 01 	lds	r31, 0x01F6	; 0x8001f6 <dig_P6+0x1>
     73a:	20 90 e9 01 	lds	r2, 0x01E9	; 0x8001e9 <dig_P5>
     73e:	30 90 ea 01 	lds	r3, 0x01EA	; 0x8001ea <dig_P5+0x1>
     742:	00 91 e6 01 	lds	r16, 0x01E6	; 0x8001e6 <dig_P4>
     746:	10 91 e7 01 	lds	r17, 0x01E7	; 0x8001e7 <dig_P4+0x1>
     74a:	a0 91 ed 01 	lds	r26, 0x01ED	; 0x8001ed <dig_P3>
     74e:	b0 91 ee 01 	lds	r27, 0x01EE	; 0x8001ee <dig_P3+0x1>
     752:	9b 01       	movw	r18, r22
     754:	ac 01       	movw	r20, r24
     756:	8d e0       	ldi	r24, 0x0D	; 13
     758:	55 95       	asr	r21
     75a:	47 95       	ror	r20
     75c:	37 95       	ror	r19
     75e:	27 95       	ror	r18
     760:	8a 95       	dec	r24
     762:	d1 f7       	brne	.-12     	; 0x758 <BMP280_readPressure+0xaa>
     764:	0e 94 c9 11 	call	0x2392	; 0x2392 <__mulshisi3>
     768:	2b 01       	movw	r4, r22
     76a:	3c 01       	movw	r6, r24
     76c:	93 e0       	ldi	r25, 0x03	; 3
     76e:	75 94       	asr	r7
     770:	67 94       	ror	r6
     772:	57 94       	ror	r5
     774:	47 94       	ror	r4
     776:	9a 95       	dec	r25
     778:	d1 f7       	brne	.-12     	; 0x76e <BMP280_readPressure+0xc0>
     77a:	a0 91 e4 01 	lds	r26, 0x01E4	; 0x8001e4 <dig_P2>
     77e:	b0 91 e5 01 	lds	r27, 0x01E5	; 0x8001e5 <dig_P2+0x1>
     782:	a5 01       	movw	r20, r10
     784:	94 01       	movw	r18, r8
     786:	0e 94 c9 11 	call	0x2392	; 0x2392 <__mulshisi3>
     78a:	dc 01       	movw	r26, r24
     78c:	cb 01       	movw	r24, r22
     78e:	b5 95       	asr	r27
     790:	a7 95       	ror	r26
     792:	97 95       	ror	r25
     794:	87 95       	ror	r24
     796:	84 0d       	add	r24, r4
     798:	95 1d       	adc	r25, r5
     79a:	a6 1d       	adc	r26, r6
     79c:	b7 1d       	adc	r27, r7
     79e:	32 e1       	ldi	r19, 0x12	; 18
     7a0:	b5 95       	asr	r27
     7a2:	a7 95       	ror	r26
     7a4:	97 95       	ror	r25
     7a6:	87 95       	ror	r24
     7a8:	3a 95       	dec	r19
     7aa:	d1 f7       	brne	.-12     	; 0x7a0 <BMP280_readPressure+0xf2>
     7ac:	9c 01       	movw	r18, r24
     7ae:	ad 01       	movw	r20, r26
     7b0:	30 58       	subi	r19, 0x80	; 128
     7b2:	4f 4f       	sbci	r20, 0xFF	; 255
     7b4:	5f 4f       	sbci	r21, 0xFF	; 255
     7b6:	a0 91 eb 01 	lds	r26, 0x01EB	; 0x8001eb <dig_P1>
     7ba:	b0 91 ec 01 	lds	r27, 0x01EC	; 0x8001ec <dig_P1+0x1>
     7be:	0e 94 be 11 	call	0x237c	; 0x237c <__muluhisi3>
     7c2:	2b 01       	movw	r4, r22
     7c4:	3c 01       	movw	r6, r24
     7c6:	4f e0       	ldi	r20, 0x0F	; 15
     7c8:	75 94       	asr	r7
     7ca:	67 94       	ror	r6
     7cc:	57 94       	ror	r5
     7ce:	47 94       	ror	r4
     7d0:	4a 95       	dec	r20
     7d2:	d1 f7       	brne	.-12     	; 0x7c8 <BMP280_readPressure+0x11a>
     7d4:	41 14       	cp	r4, r1
     7d6:	51 04       	cpc	r5, r1
     7d8:	61 04       	cpc	r6, r1
     7da:	71 04       	cpc	r7, r1
     7dc:	09 f4       	brne	.+2      	; 0x7e0 <BMP280_readPressure+0x132>
     7de:	ca c0       	rjmp	.+404    	; 0x974 <BMP280_readPressure+0x2c6>
     7e0:	a7 01       	movw	r20, r14
     7e2:	96 01       	movw	r18, r12
     7e4:	6b e0       	ldi	r22, 0x0B	; 11
     7e6:	55 95       	asr	r21
     7e8:	47 95       	ror	r20
     7ea:	37 95       	ror	r19
     7ec:	27 95       	ror	r18
     7ee:	6a 95       	dec	r22
     7f0:	d1 f7       	brne	.-12     	; 0x7e6 <BMP280_readPressure+0x138>
     7f2:	df 01       	movw	r26, r30
     7f4:	0e 94 c9 11 	call	0x2392	; 0x2392 <__mulshisi3>
     7f8:	6b 01       	movw	r12, r22
     7fa:	7c 01       	movw	r14, r24
     7fc:	d1 01       	movw	r26, r2
     7fe:	a5 01       	movw	r20, r10
     800:	94 01       	movw	r18, r8
     802:	0e 94 c9 11 	call	0x2392	; 0x2392 <__mulshisi3>
     806:	dc 01       	movw	r26, r24
     808:	cb 01       	movw	r24, r22
     80a:	88 0f       	add	r24, r24
     80c:	99 1f       	adc	r25, r25
     80e:	aa 1f       	adc	r26, r26
     810:	bb 1f       	adc	r27, r27
     812:	8c 0d       	add	r24, r12
     814:	9d 1d       	adc	r25, r13
     816:	ae 1d       	adc	r26, r14
     818:	bf 1d       	adc	r27, r15
     81a:	e2 e0       	ldi	r30, 0x02	; 2
     81c:	b5 95       	asr	r27
     81e:	a7 95       	ror	r26
     820:	97 95       	ror	r25
     822:	87 95       	ror	r24
     824:	ea 95       	dec	r30
     826:	d1 f7       	brne	.-12     	; 0x81c <BMP280_readPressure+0x16e>
     828:	c9 80       	ldd	r12, Y+1	; 0x01
     82a:	da 80       	ldd	r13, Y+2	; 0x02
     82c:	eb 80       	ldd	r14, Y+3	; 0x03
     82e:	fc 80       	ldd	r15, Y+4	; 0x04
     830:	f4 e0       	ldi	r31, 0x04	; 4
     832:	f5 94       	asr	r15
     834:	e7 94       	ror	r14
     836:	d7 94       	ror	r13
     838:	c7 94       	ror	r12
     83a:	fa 95       	dec	r31
     83c:	d1 f7       	brne	.-12     	; 0x832 <BMP280_readPressure+0x184>
     83e:	f0 94       	com	r15
     840:	e0 94       	com	r14
     842:	d0 94       	com	r13
     844:	c0 94       	com	r12
     846:	c1 1c       	adc	r12, r1
     848:	d1 1c       	adc	r13, r1
     84a:	e1 1c       	adc	r14, r1
     84c:	f1 1c       	adc	r15, r1
     84e:	01 2e       	mov	r0, r17
     850:	00 0c       	add	r0, r0
     852:	22 0b       	sbc	r18, r18
     854:	33 0b       	sbc	r19, r19
     856:	98 01       	movw	r18, r16
     858:	11 27       	eor	r17, r17
     85a:	00 27       	eor	r16, r16
     85c:	08 0f       	add	r16, r24
     85e:	19 1f       	adc	r17, r25
     860:	2a 1f       	adc	r18, r26
     862:	3b 1f       	adc	r19, r27
     864:	5c e0       	ldi	r21, 0x0C	; 12
     866:	35 95       	asr	r19
     868:	27 95       	ror	r18
     86a:	17 95       	ror	r17
     86c:	07 95       	ror	r16
     86e:	5a 95       	dec	r21
     870:	d1 f7       	brne	.-12     	; 0x866 <BMP280_readPressure+0x1b8>
     872:	d7 01       	movw	r26, r14
     874:	c6 01       	movw	r24, r12
     876:	80 1b       	sub	r24, r16
     878:	91 0b       	sbc	r25, r17
     87a:	a2 0b       	sbc	r26, r18
     87c:	b3 0b       	sbc	r27, r19
     87e:	9c 01       	movw	r18, r24
     880:	ad 01       	movw	r20, r26
     882:	a5 e3       	ldi	r26, 0x35	; 53
     884:	bc e0       	ldi	r27, 0x0C	; 12
     886:	0e 94 be 11 	call	0x237c	; 0x237c <__muluhisi3>
     88a:	80 5b       	subi	r24, 0xB0	; 176
     88c:	9c 43       	sbci	r25, 0x3C	; 60
     88e:	97 fd       	sbrc	r25, 7
     890:	0b c0       	rjmp	.+22     	; 0x8a8 <BMP280_readPressure+0x1fa>
     892:	66 0f       	add	r22, r22
     894:	77 1f       	adc	r23, r23
     896:	88 1f       	adc	r24, r24
     898:	99 1f       	adc	r25, r25
     89a:	a3 01       	movw	r20, r6
     89c:	92 01       	movw	r18, r4
     89e:	0e 94 9c 11 	call	0x2338	; 0x2338 <__udivmodsi4>
     8a2:	69 01       	movw	r12, r18
     8a4:	7a 01       	movw	r14, r20
     8a6:	0a c0       	rjmp	.+20     	; 0x8bc <BMP280_readPressure+0x20e>
     8a8:	a3 01       	movw	r20, r6
     8aa:	92 01       	movw	r18, r4
     8ac:	0e 94 9c 11 	call	0x2338	; 0x2338 <__udivmodsi4>
     8b0:	69 01       	movw	r12, r18
     8b2:	7a 01       	movw	r14, r20
     8b4:	cc 0c       	add	r12, r12
     8b6:	dd 1c       	adc	r13, r13
     8b8:	ee 1c       	adc	r14, r14
     8ba:	ff 1c       	adc	r15, r15
     8bc:	c7 01       	movw	r24, r14
     8be:	b6 01       	movw	r22, r12
     8c0:	23 e0       	ldi	r18, 0x03	; 3
     8c2:	96 95       	lsr	r25
     8c4:	87 95       	ror	r24
     8c6:	77 95       	ror	r23
     8c8:	67 95       	ror	r22
     8ca:	2a 95       	dec	r18
     8cc:	d1 f7       	brne	.-12     	; 0x8c2 <BMP280_readPressure+0x214>
     8ce:	e0 91 f1 01 	lds	r30, 0x01F1	; 0x8001f1 <dig_P9>
     8d2:	f0 91 f2 01 	lds	r31, 0x01F2	; 0x8001f2 <dig_P9+0x1>
     8d6:	9b 01       	movw	r18, r22
     8d8:	ac 01       	movw	r20, r24
     8da:	0e 94 78 11 	call	0x22f0	; 0x22f0 <__mulsi3>
     8de:	9b 01       	movw	r18, r22
     8e0:	ac 01       	movw	r20, r24
     8e2:	6d e0       	ldi	r22, 0x0D	; 13
     8e4:	56 95       	lsr	r21
     8e6:	47 95       	ror	r20
     8e8:	37 95       	ror	r19
     8ea:	27 95       	ror	r18
     8ec:	6a 95       	dec	r22
     8ee:	d1 f7       	brne	.-12     	; 0x8e4 <BMP280_readPressure+0x236>
     8f0:	df 01       	movw	r26, r30
     8f2:	0e 94 c9 11 	call	0x2392	; 0x2392 <__mulshisi3>
     8f6:	4b 01       	movw	r8, r22
     8f8:	5c 01       	movw	r10, r24
     8fa:	7c e0       	ldi	r23, 0x0C	; 12
     8fc:	b5 94       	asr	r11
     8fe:	a7 94       	ror	r10
     900:	97 94       	ror	r9
     902:	87 94       	ror	r8
     904:	7a 95       	dec	r23
     906:	d1 f7       	brne	.-12     	; 0x8fc <BMP280_readPressure+0x24e>
     908:	a7 01       	movw	r20, r14
     90a:	96 01       	movw	r18, r12
     90c:	e2 e0       	ldi	r30, 0x02	; 2
     90e:	56 95       	lsr	r21
     910:	47 95       	ror	r20
     912:	37 95       	ror	r19
     914:	27 95       	ror	r18
     916:	ea 95       	dec	r30
     918:	d1 f7       	brne	.-12     	; 0x90e <BMP280_readPressure+0x260>
     91a:	a0 91 ef 01 	lds	r26, 0x01EF	; 0x8001ef <dig_P8>
     91e:	b0 91 f0 01 	lds	r27, 0x01F0	; 0x8001f0 <dig_P8+0x1>
     922:	0e 94 c9 11 	call	0x2392	; 0x2392 <__mulshisi3>
     926:	dc 01       	movw	r26, r24
     928:	cb 01       	movw	r24, r22
     92a:	fd e0       	ldi	r31, 0x0D	; 13
     92c:	b5 95       	asr	r27
     92e:	a7 95       	ror	r26
     930:	97 95       	ror	r25
     932:	87 95       	ror	r24
     934:	fa 95       	dec	r31
     936:	d1 f7       	brne	.-12     	; 0x92c <BMP280_readPressure+0x27e>
     938:	88 0d       	add	r24, r8
     93a:	99 1d       	adc	r25, r9
     93c:	aa 1d       	adc	r26, r10
     93e:	bb 1d       	adc	r27, r11
     940:	40 91 de 01 	lds	r20, 0x01DE	; 0x8001de <dig_P7>
     944:	50 91 df 01 	lds	r21, 0x01DF	; 0x8001df <dig_P7+0x1>
     948:	05 2e       	mov	r0, r21
     94a:	00 0c       	add	r0, r0
     94c:	66 0b       	sbc	r22, r22
     94e:	77 0b       	sbc	r23, r23
     950:	84 0f       	add	r24, r20
     952:	95 1f       	adc	r25, r21
     954:	a6 1f       	adc	r26, r22
     956:	b7 1f       	adc	r27, r23
     958:	14 e0       	ldi	r17, 0x04	; 4
     95a:	b5 95       	asr	r27
     95c:	a7 95       	ror	r26
     95e:	97 95       	ror	r25
     960:	87 95       	ror	r24
     962:	1a 95       	dec	r17
     964:	d1 f7       	brne	.-12     	; 0x95a <BMP280_readPressure+0x2ac>
     966:	bc 01       	movw	r22, r24
     968:	cd 01       	movw	r24, r26
     96a:	6c 0d       	add	r22, r12
     96c:	7d 1d       	adc	r23, r13
     96e:	8e 1d       	adc	r24, r14
     970:	9f 1d       	adc	r25, r15
     972:	03 c0       	rjmp	.+6      	; 0x97a <BMP280_readPressure+0x2cc>
     974:	60 e0       	ldi	r22, 0x00	; 0
     976:	70 e0       	ldi	r23, 0x00	; 0
     978:	cb 01       	movw	r24, r22
     97a:	28 96       	adiw	r28, 0x08	; 8
     97c:	0f b6       	in	r0, 0x3f	; 63
     97e:	f8 94       	cli
     980:	de bf       	out	0x3e, r29	; 62
     982:	0f be       	out	0x3f, r0	; 63
     984:	cd bf       	out	0x3d, r28	; 61
     986:	df 91       	pop	r29
     988:	cf 91       	pop	r28
     98a:	1f 91       	pop	r17
     98c:	0f 91       	pop	r16
     98e:	ff 90       	pop	r15
     990:	ef 90       	pop	r14
     992:	df 90       	pop	r13
     994:	cf 90       	pop	r12
     996:	bf 90       	pop	r11
     998:	af 90       	pop	r10
     99a:	9f 90       	pop	r9
     99c:	8f 90       	pop	r8
     99e:	7f 90       	pop	r7
     9a0:	6f 90       	pop	r6
     9a2:	5f 90       	pop	r5
     9a4:	4f 90       	pop	r4
     9a6:	3f 90       	pop	r3
     9a8:	2f 90       	pop	r2
     9aa:	08 95       	ret

000009ac <BMP280_readPressure_float>:
     9ac:	2f 92       	push	r2
     9ae:	3f 92       	push	r3
     9b0:	4f 92       	push	r4
     9b2:	5f 92       	push	r5
     9b4:	6f 92       	push	r6
     9b6:	7f 92       	push	r7
     9b8:	8f 92       	push	r8
     9ba:	9f 92       	push	r9
     9bc:	af 92       	push	r10
     9be:	bf 92       	push	r11
     9c0:	cf 92       	push	r12
     9c2:	df 92       	push	r13
     9c4:	ef 92       	push	r14
     9c6:	ff 92       	push	r15
     9c8:	0f 93       	push	r16
     9ca:	1f 93       	push	r17
     9cc:	cf 93       	push	r28
     9ce:	df 93       	push	r29
     9d0:	cd b7       	in	r28, 0x3d	; 61
     9d2:	de b7       	in	r29, 0x3e	; 62
     9d4:	28 97       	sbiw	r28, 0x08	; 8
     9d6:	0f b6       	in	r0, 0x3f	; 63
     9d8:	f8 94       	cli
     9da:	de bf       	out	0x3e, r29	; 62
     9dc:	0f be       	out	0x3f, r0	; 63
     9de:	cd bf       	out	0x3d, r28	; 61
     9e0:	8c 01       	movw	r16, r24
     9e2:	78 87       	std	Y+8, r23	; 0x08
     9e4:	6f 83       	std	Y+7, r22	; 0x07
     9e6:	0e 94 d0 02 	call	0x5a0	; 0x5a0 <BMP280_readTemperature>
     9ea:	f8 01       	movw	r30, r16
     9ec:	60 83       	st	Z, r22
     9ee:	71 83       	std	Z+1, r23	; 0x01
     9f0:	82 83       	std	Z+2, r24	; 0x02
     9f2:	93 83       	std	Z+3, r25	; 0x03
     9f4:	87 ef       	ldi	r24, 0xF7	; 247
     9f6:	0e 94 42 02 	call	0x484	; 0x484 <BMP280_read24>
     9fa:	69 83       	std	Y+1, r22	; 0x01
     9fc:	7a 83       	std	Y+2, r23	; 0x02
     9fe:	8b 83       	std	Y+3, r24	; 0x03
     a00:	9c 83       	std	Y+4, r25	; 0x04
     a02:	60 91 f7 01 	lds	r22, 0x01F7	; 0x8001f7 <t_fine>
     a06:	70 91 f8 01 	lds	r23, 0x01F8	; 0x8001f8 <t_fine+0x1>
     a0a:	80 91 f9 01 	lds	r24, 0x01F9	; 0x8001f9 <t_fine+0x2>
     a0e:	90 91 fa 01 	lds	r25, 0x01FA	; 0x8001fa <t_fine+0x3>
     a12:	0e 94 f4 12 	call	0x25e8	; 0x25e8 <__floatsisf>
     a16:	20 e0       	ldi	r18, 0x00	; 0
     a18:	30 e0       	ldi	r19, 0x00	; 0
     a1a:	40 e0       	ldi	r20, 0x00	; 0
     a1c:	5f e3       	ldi	r21, 0x3F	; 63
     a1e:	0e 94 a4 13 	call	0x2748	; 0x2748 <__mulsf3>
     a22:	20 e0       	ldi	r18, 0x00	; 0
     a24:	30 e0       	ldi	r19, 0x00	; 0
     a26:	4a e7       	ldi	r20, 0x7A	; 122
     a28:	57 e4       	ldi	r21, 0x47	; 71
     a2a:	0e 94 0e 12 	call	0x241c	; 0x241c <__subsf3>
     a2e:	6b 01       	movw	r12, r22
     a30:	7c 01       	movw	r14, r24
     a32:	00 91 f5 01 	lds	r16, 0x01F5	; 0x8001f5 <dig_P6>
     a36:	10 91 f6 01 	lds	r17, 0x01F6	; 0x8001f6 <dig_P6+0x1>
     a3a:	20 90 e9 01 	lds	r2, 0x01E9	; 0x8001e9 <dig_P5>
     a3e:	30 90 ea 01 	lds	r3, 0x01EA	; 0x8001ea <dig_P5+0x1>
     a42:	20 91 e6 01 	lds	r18, 0x01E6	; 0x8001e6 <dig_P4>
     a46:	30 91 e7 01 	lds	r19, 0x01E7	; 0x8001e7 <dig_P4+0x1>
     a4a:	3e 83       	std	Y+6, r19	; 0x06
     a4c:	2d 83       	std	Y+5, r18	; 0x05
     a4e:	60 91 ed 01 	lds	r22, 0x01ED	; 0x8001ed <dig_P3>
     a52:	70 91 ee 01 	lds	r23, 0x01EE	; 0x8001ee <dig_P3+0x1>
     a56:	07 2e       	mov	r0, r23
     a58:	00 0c       	add	r0, r0
     a5a:	88 0b       	sbc	r24, r24
     a5c:	99 0b       	sbc	r25, r25
     a5e:	0e 94 f4 12 	call	0x25e8	; 0x25e8 <__floatsisf>
     a62:	a7 01       	movw	r20, r14
     a64:	96 01       	movw	r18, r12
     a66:	0e 94 a4 13 	call	0x2748	; 0x2748 <__mulsf3>
     a6a:	a7 01       	movw	r20, r14
     a6c:	96 01       	movw	r18, r12
     a6e:	0e 94 a4 13 	call	0x2748	; 0x2748 <__mulsf3>
     a72:	20 e0       	ldi	r18, 0x00	; 0
     a74:	30 e0       	ldi	r19, 0x00	; 0
     a76:	40 e0       	ldi	r20, 0x00	; 0
     a78:	56 e3       	ldi	r21, 0x36	; 54
     a7a:	0e 94 a4 13 	call	0x2748	; 0x2748 <__mulsf3>
     a7e:	4b 01       	movw	r8, r22
     a80:	5c 01       	movw	r10, r24
     a82:	60 91 e4 01 	lds	r22, 0x01E4	; 0x8001e4 <dig_P2>
     a86:	70 91 e5 01 	lds	r23, 0x01E5	; 0x8001e5 <dig_P2+0x1>
     a8a:	07 2e       	mov	r0, r23
     a8c:	00 0c       	add	r0, r0
     a8e:	88 0b       	sbc	r24, r24
     a90:	99 0b       	sbc	r25, r25
     a92:	0e 94 f4 12 	call	0x25e8	; 0x25e8 <__floatsisf>
     a96:	a7 01       	movw	r20, r14
     a98:	96 01       	movw	r18, r12
     a9a:	0e 94 a4 13 	call	0x2748	; 0x2748 <__mulsf3>
     a9e:	9b 01       	movw	r18, r22
     aa0:	ac 01       	movw	r20, r24
     aa2:	c5 01       	movw	r24, r10
     aa4:	b4 01       	movw	r22, r8
     aa6:	0e 94 0f 12 	call	0x241e	; 0x241e <__addsf3>
     aaa:	20 e0       	ldi	r18, 0x00	; 0
     aac:	30 e0       	ldi	r19, 0x00	; 0
     aae:	40 e0       	ldi	r20, 0x00	; 0
     ab0:	56 e3       	ldi	r21, 0x36	; 54
     ab2:	0e 94 a4 13 	call	0x2748	; 0x2748 <__mulsf3>
     ab6:	20 e0       	ldi	r18, 0x00	; 0
     ab8:	30 e0       	ldi	r19, 0x00	; 0
     aba:	40 e0       	ldi	r20, 0x00	; 0
     abc:	58 e3       	ldi	r21, 0x38	; 56
     abe:	0e 94 a4 13 	call	0x2748	; 0x2748 <__mulsf3>
     ac2:	20 e0       	ldi	r18, 0x00	; 0
     ac4:	30 e0       	ldi	r19, 0x00	; 0
     ac6:	40 e8       	ldi	r20, 0x80	; 128
     ac8:	5f e3       	ldi	r21, 0x3F	; 63
     aca:	0e 94 0f 12 	call	0x241e	; 0x241e <__addsf3>
     ace:	4b 01       	movw	r8, r22
     ad0:	5c 01       	movw	r10, r24
     ad2:	60 91 eb 01 	lds	r22, 0x01EB	; 0x8001eb <dig_P1>
     ad6:	70 91 ec 01 	lds	r23, 0x01EC	; 0x8001ec <dig_P1+0x1>
     ada:	80 e0       	ldi	r24, 0x00	; 0
     adc:	90 e0       	ldi	r25, 0x00	; 0
     ade:	0e 94 f2 12 	call	0x25e4	; 0x25e4 <__floatunsisf>
     ae2:	9b 01       	movw	r18, r22
     ae4:	ac 01       	movw	r20, r24
     ae6:	c5 01       	movw	r24, r10
     ae8:	b4 01       	movw	r22, r8
     aea:	0e 94 a4 13 	call	0x2748	; 0x2748 <__mulsf3>
     aee:	4b 01       	movw	r8, r22
     af0:	5c 01       	movw	r10, r24
     af2:	20 e0       	ldi	r18, 0x00	; 0
     af4:	30 e0       	ldi	r19, 0x00	; 0
     af6:	a9 01       	movw	r20, r18
     af8:	0e 94 7b 12 	call	0x24f6	; 0x24f6 <__cmpsf2>
     afc:	81 11       	cpse	r24, r1
     afe:	07 c0       	rjmp	.+14     	; 0xb0e <BMP280_readPressure_float+0x162>
     b00:	ef 81       	ldd	r30, Y+7	; 0x07
     b02:	f8 85       	ldd	r31, Y+8	; 0x08
     b04:	10 82       	st	Z, r1
     b06:	11 82       	std	Z+1, r1	; 0x01
     b08:	12 82       	std	Z+2, r1	; 0x02
     b0a:	13 82       	std	Z+3, r1	; 0x03
     b0c:	d7 c0       	rjmp	.+430    	; 0xcbc <BMP280_readPressure_float+0x310>
     b0e:	a7 01       	movw	r20, r14
     b10:	96 01       	movw	r18, r12
     b12:	c7 01       	movw	r24, r14
     b14:	b6 01       	movw	r22, r12
     b16:	0e 94 a4 13 	call	0x2748	; 0x2748 <__mulsf3>
     b1a:	2b 01       	movw	r4, r22
     b1c:	3c 01       	movw	r6, r24
     b1e:	b8 01       	movw	r22, r16
     b20:	11 0f       	add	r17, r17
     b22:	88 0b       	sbc	r24, r24
     b24:	99 0b       	sbc	r25, r25
     b26:	0e 94 f4 12 	call	0x25e8	; 0x25e8 <__floatsisf>
     b2a:	9b 01       	movw	r18, r22
     b2c:	ac 01       	movw	r20, r24
     b2e:	c3 01       	movw	r24, r6
     b30:	b2 01       	movw	r22, r4
     b32:	0e 94 a4 13 	call	0x2748	; 0x2748 <__mulsf3>
     b36:	20 e0       	ldi	r18, 0x00	; 0
     b38:	30 e0       	ldi	r19, 0x00	; 0
     b3a:	40 e0       	ldi	r20, 0x00	; 0
     b3c:	58 e3       	ldi	r21, 0x38	; 56
     b3e:	0e 94 a4 13 	call	0x2748	; 0x2748 <__mulsf3>
     b42:	2b 01       	movw	r4, r22
     b44:	3c 01       	movw	r6, r24
     b46:	b1 01       	movw	r22, r2
     b48:	33 0c       	add	r3, r3
     b4a:	88 0b       	sbc	r24, r24
     b4c:	99 0b       	sbc	r25, r25
     b4e:	0e 94 f4 12 	call	0x25e8	; 0x25e8 <__floatsisf>
     b52:	9b 01       	movw	r18, r22
     b54:	ac 01       	movw	r20, r24
     b56:	c7 01       	movw	r24, r14
     b58:	b6 01       	movw	r22, r12
     b5a:	0e 94 a4 13 	call	0x2748	; 0x2748 <__mulsf3>
     b5e:	9b 01       	movw	r18, r22
     b60:	ac 01       	movw	r20, r24
     b62:	0e 94 0f 12 	call	0x241e	; 0x241e <__addsf3>
     b66:	9b 01       	movw	r18, r22
     b68:	ac 01       	movw	r20, r24
     b6a:	c3 01       	movw	r24, r6
     b6c:	b2 01       	movw	r22, r4
     b6e:	0e 94 0f 12 	call	0x241e	; 0x241e <__addsf3>
     b72:	20 e0       	ldi	r18, 0x00	; 0
     b74:	30 e0       	ldi	r19, 0x00	; 0
     b76:	40 e8       	ldi	r20, 0x80	; 128
     b78:	5e e3       	ldi	r21, 0x3E	; 62
     b7a:	0e 94 a4 13 	call	0x2748	; 0x2748 <__mulsf3>
     b7e:	6b 01       	movw	r12, r22
     b80:	7c 01       	movw	r14, r24
     b82:	69 81       	ldd	r22, Y+1	; 0x01
     b84:	7a 81       	ldd	r23, Y+2	; 0x02
     b86:	8b 81       	ldd	r24, Y+3	; 0x03
     b88:	9c 81       	ldd	r25, Y+4	; 0x04
     b8a:	24 e0       	ldi	r18, 0x04	; 4
     b8c:	95 95       	asr	r25
     b8e:	87 95       	ror	r24
     b90:	77 95       	ror	r23
     b92:	67 95       	ror	r22
     b94:	2a 95       	dec	r18
     b96:	d1 f7       	brne	.-12     	; 0xb8c <BMP280_readPressure_float+0x1e0>
     b98:	0e 94 f4 12 	call	0x25e8	; 0x25e8 <__floatsisf>
     b9c:	9b 01       	movw	r18, r22
     b9e:	ac 01       	movw	r20, r24
     ba0:	60 e0       	ldi	r22, 0x00	; 0
     ba2:	70 e0       	ldi	r23, 0x00	; 0
     ba4:	80 e8       	ldi	r24, 0x80	; 128
     ba6:	99 e4       	ldi	r25, 0x49	; 73
     ba8:	0e 94 0e 12 	call	0x241c	; 0x241c <__subsf3>
     bac:	2b 01       	movw	r4, r22
     bae:	3c 01       	movw	r6, r24
     bb0:	2d 81       	ldd	r18, Y+5	; 0x05
     bb2:	3e 81       	ldd	r19, Y+6	; 0x06
     bb4:	b9 01       	movw	r22, r18
     bb6:	33 0f       	add	r19, r19
     bb8:	88 0b       	sbc	r24, r24
     bba:	99 0b       	sbc	r25, r25
     bbc:	0e 94 f4 12 	call	0x25e8	; 0x25e8 <__floatsisf>
     bc0:	20 e0       	ldi	r18, 0x00	; 0
     bc2:	30 e0       	ldi	r19, 0x00	; 0
     bc4:	40 e8       	ldi	r20, 0x80	; 128
     bc6:	57 e4       	ldi	r21, 0x47	; 71
     bc8:	0e 94 a4 13 	call	0x2748	; 0x2748 <__mulsf3>
     bcc:	9b 01       	movw	r18, r22
     bce:	ac 01       	movw	r20, r24
     bd0:	c7 01       	movw	r24, r14
     bd2:	b6 01       	movw	r22, r12
     bd4:	0e 94 0f 12 	call	0x241e	; 0x241e <__addsf3>
     bd8:	20 e0       	ldi	r18, 0x00	; 0
     bda:	30 e0       	ldi	r19, 0x00	; 0
     bdc:	40 e8       	ldi	r20, 0x80	; 128
     bde:	59 e3       	ldi	r21, 0x39	; 57
     be0:	0e 94 a4 13 	call	0x2748	; 0x2748 <__mulsf3>
     be4:	9b 01       	movw	r18, r22
     be6:	ac 01       	movw	r20, r24
     be8:	c3 01       	movw	r24, r6
     bea:	b2 01       	movw	r22, r4
     bec:	0e 94 0e 12 	call	0x241c	; 0x241c <__subsf3>
     bf0:	20 e0       	ldi	r18, 0x00	; 0
     bf2:	30 e5       	ldi	r19, 0x50	; 80
     bf4:	43 ec       	ldi	r20, 0xC3	; 195
     bf6:	55 e4       	ldi	r21, 0x45	; 69
     bf8:	0e 94 a4 13 	call	0x2748	; 0x2748 <__mulsf3>
     bfc:	a5 01       	movw	r20, r10
     bfe:	94 01       	movw	r18, r8
     c00:	0e 94 80 12 	call	0x2500	; 0x2500 <__divsf3>
     c04:	6b 01       	movw	r12, r22
     c06:	7c 01       	movw	r14, r24
     c08:	60 91 f1 01 	lds	r22, 0x01F1	; 0x8001f1 <dig_P9>
     c0c:	70 91 f2 01 	lds	r23, 0x01F2	; 0x8001f2 <dig_P9+0x1>
     c10:	07 2e       	mov	r0, r23
     c12:	00 0c       	add	r0, r0
     c14:	88 0b       	sbc	r24, r24
     c16:	99 0b       	sbc	r25, r25
     c18:	0e 94 f4 12 	call	0x25e8	; 0x25e8 <__floatsisf>
     c1c:	a7 01       	movw	r20, r14
     c1e:	96 01       	movw	r18, r12
     c20:	0e 94 a4 13 	call	0x2748	; 0x2748 <__mulsf3>
     c24:	a7 01       	movw	r20, r14
     c26:	96 01       	movw	r18, r12
     c28:	0e 94 a4 13 	call	0x2748	; 0x2748 <__mulsf3>
     c2c:	20 e0       	ldi	r18, 0x00	; 0
     c2e:	30 e0       	ldi	r19, 0x00	; 0
     c30:	40 e0       	ldi	r20, 0x00	; 0
     c32:	50 e3       	ldi	r21, 0x30	; 48
     c34:	0e 94 a4 13 	call	0x2748	; 0x2748 <__mulsf3>
     c38:	4b 01       	movw	r8, r22
     c3a:	5c 01       	movw	r10, r24
     c3c:	80 91 ef 01 	lds	r24, 0x01EF	; 0x8001ef <dig_P8>
     c40:	90 91 f0 01 	lds	r25, 0x01F0	; 0x8001f0 <dig_P8+0x1>
     c44:	bc 01       	movw	r22, r24
     c46:	99 0f       	add	r25, r25
     c48:	88 0b       	sbc	r24, r24
     c4a:	99 0b       	sbc	r25, r25
     c4c:	0e 94 f4 12 	call	0x25e8	; 0x25e8 <__floatsisf>
     c50:	9b 01       	movw	r18, r22
     c52:	ac 01       	movw	r20, r24
     c54:	c7 01       	movw	r24, r14
     c56:	b6 01       	movw	r22, r12
     c58:	0e 94 a4 13 	call	0x2748	; 0x2748 <__mulsf3>
     c5c:	20 e0       	ldi	r18, 0x00	; 0
     c5e:	30 e0       	ldi	r19, 0x00	; 0
     c60:	40 e0       	ldi	r20, 0x00	; 0
     c62:	58 e3       	ldi	r21, 0x38	; 56
     c64:	0e 94 a4 13 	call	0x2748	; 0x2748 <__mulsf3>
     c68:	9b 01       	movw	r18, r22
     c6a:	ac 01       	movw	r20, r24
     c6c:	c5 01       	movw	r24, r10
     c6e:	b4 01       	movw	r22, r8
     c70:	0e 94 0f 12 	call	0x241e	; 0x241e <__addsf3>
     c74:	4b 01       	movw	r8, r22
     c76:	5c 01       	movw	r10, r24
     c78:	80 91 de 01 	lds	r24, 0x01DE	; 0x8001de <dig_P7>
     c7c:	90 91 df 01 	lds	r25, 0x01DF	; 0x8001df <dig_P7+0x1>
     c80:	bc 01       	movw	r22, r24
     c82:	99 0f       	add	r25, r25
     c84:	88 0b       	sbc	r24, r24
     c86:	99 0b       	sbc	r25, r25
     c88:	0e 94 f4 12 	call	0x25e8	; 0x25e8 <__floatsisf>
     c8c:	9b 01       	movw	r18, r22
     c8e:	ac 01       	movw	r20, r24
     c90:	c5 01       	movw	r24, r10
     c92:	b4 01       	movw	r22, r8
     c94:	0e 94 0f 12 	call	0x241e	; 0x241e <__addsf3>
     c98:	20 e0       	ldi	r18, 0x00	; 0
     c9a:	30 e0       	ldi	r19, 0x00	; 0
     c9c:	40 e8       	ldi	r20, 0x80	; 128
     c9e:	5d e3       	ldi	r21, 0x3D	; 61
     ca0:	0e 94 a4 13 	call	0x2748	; 0x2748 <__mulsf3>
     ca4:	9b 01       	movw	r18, r22
     ca6:	ac 01       	movw	r20, r24
     ca8:	c7 01       	movw	r24, r14
     caa:	b6 01       	movw	r22, r12
     cac:	0e 94 0f 12 	call	0x241e	; 0x241e <__addsf3>
     cb0:	ef 81       	ldd	r30, Y+7	; 0x07
     cb2:	f8 85       	ldd	r31, Y+8	; 0x08
     cb4:	60 83       	st	Z, r22
     cb6:	71 83       	std	Z+1, r23	; 0x01
     cb8:	82 83       	std	Z+2, r24	; 0x02
     cba:	93 83       	std	Z+3, r25	; 0x03
     cbc:	28 96       	adiw	r28, 0x08	; 8
     cbe:	0f b6       	in	r0, 0x3f	; 63
     cc0:	f8 94       	cli
     cc2:	de bf       	out	0x3e, r29	; 62
     cc4:	0f be       	out	0x3f, r0	; 63
     cc6:	cd bf       	out	0x3d, r28	; 61
     cc8:	df 91       	pop	r29
     cca:	cf 91       	pop	r28
     ccc:	1f 91       	pop	r17
     cce:	0f 91       	pop	r16
     cd0:	ff 90       	pop	r15
     cd2:	ef 90       	pop	r14
     cd4:	df 90       	pop	r13
     cd6:	cf 90       	pop	r12
     cd8:	bf 90       	pop	r11
     cda:	af 90       	pop	r10
     cdc:	9f 90       	pop	r9
     cde:	8f 90       	pop	r8
     ce0:	7f 90       	pop	r7
     ce2:	6f 90       	pop	r6
     ce4:	5f 90       	pop	r5
     ce6:	4f 90       	pop	r4
     ce8:	3f 90       	pop	r3
     cea:	2f 90       	pop	r2
     cec:	08 95       	ret

00000cee <BMP280_altitude>:
     cee:	20 e8       	ldi	r18, 0x80	; 128
     cf0:	36 ee       	ldi	r19, 0xE6	; 230
     cf2:	45 ec       	ldi	r20, 0xC5	; 197
     cf4:	57 e4       	ldi	r21, 0x47	; 71
     cf6:	fc 01       	movw	r30, r24
     cf8:	60 81       	ld	r22, Z
     cfa:	71 81       	ldd	r23, Z+1	; 0x01
     cfc:	82 81       	ldd	r24, Z+2	; 0x02
     cfe:	93 81       	ldd	r25, Z+3	; 0x03
     d00:	0e 94 80 12 	call	0x2500	; 0x2500 <__divsf3>
     d04:	22 e6       	ldi	r18, 0x62	; 98
     d06:	3b ed       	ldi	r19, 0xDB	; 219
     d08:	42 e4       	ldi	r20, 0x42	; 66
     d0a:	5e e3       	ldi	r21, 0x3E	; 62
     d0c:	0e 94 11 14 	call	0x2822	; 0x2822 <pow>
     d10:	9b 01       	movw	r18, r22
     d12:	ac 01       	movw	r20, r24
     d14:	60 e0       	ldi	r22, 0x00	; 0
     d16:	70 e0       	ldi	r23, 0x00	; 0
     d18:	80 e8       	ldi	r24, 0x80	; 128
     d1a:	9f e3       	ldi	r25, 0x3F	; 63
     d1c:	0e 94 0e 12 	call	0x241c	; 0x241c <__subsf3>
     d20:	20 e0       	ldi	r18, 0x00	; 0
     d22:	3a e2       	ldi	r19, 0x2A	; 42
     d24:	4d e2       	ldi	r20, 0x2D	; 45
     d26:	57 e4       	ldi	r21, 0x47	; 71
     d28:	0e 94 a4 13 	call	0x2748	; 0x2748 <__mulsf3>
     d2c:	08 95       	ret

00000d2e <BMP280_receiveData>:
     d2e:	ef 92       	push	r14
     d30:	ff 92       	push	r15
     d32:	0f 93       	push	r16
     d34:	1f 93       	push	r17
     d36:	cf 93       	push	r28
     d38:	df 93       	push	r29
     d3a:	7c 01       	movw	r14, r24
     d3c:	eb 01       	movw	r28, r22
     d3e:	8a 01       	movw	r16, r20
     d40:	65 e5       	ldi	r22, 0x55	; 85
     d42:	84 ef       	ldi	r24, 0xF4	; 244
     d44:	0e 94 08 02 	call	0x410	; 0x410 <BMP280_write8>
     d48:	2f ef       	ldi	r18, 0xFF	; 255
     d4a:	82 e1       	ldi	r24, 0x12	; 18
     d4c:	91 e0       	ldi	r25, 0x01	; 1
     d4e:	21 50       	subi	r18, 0x01	; 1
     d50:	80 40       	sbci	r24, 0x00	; 0
     d52:	90 40       	sbci	r25, 0x00	; 0
     d54:	e1 f7       	brne	.-8      	; 0xd4e <BMP280_receiveData+0x20>
     d56:	00 c0       	rjmp	.+0      	; 0xd58 <BMP280_receiveData+0x2a>
     d58:	00 00       	nop
     d5a:	be 01       	movw	r22, r28
     d5c:	c7 01       	movw	r24, r14
     d5e:	0e 94 d6 04 	call	0x9ac	; 0x9ac <BMP280_readPressure_float>
     d62:	ce 01       	movw	r24, r28
     d64:	0e 94 77 06 	call	0xcee	; 0xcee <BMP280_altitude>
     d68:	f8 01       	movw	r30, r16
     d6a:	60 83       	st	Z, r22
     d6c:	71 83       	std	Z+1, r23	; 0x01
     d6e:	82 83       	std	Z+2, r24	; 0x02
     d70:	93 83       	std	Z+3, r25	; 0x03
     d72:	81 e0       	ldi	r24, 0x01	; 1
     d74:	df 91       	pop	r29
     d76:	cf 91       	pop	r28
     d78:	1f 91       	pop	r17
     d7a:	0f 91       	pop	r16
     d7c:	ff 90       	pop	r15
     d7e:	ef 90       	pop	r14
     d80:	08 95       	ret

00000d82 <ds18b20crc8>:
     d82:	38 2f       	mov	r19, r24
     d84:	fc 01       	movw	r30, r24
     d86:	80 e0       	ldi	r24, 0x00	; 0
     d88:	4c e8       	ldi	r20, 0x8C	; 140
     d8a:	9e 2f       	mov	r25, r30
     d8c:	93 1b       	sub	r25, r19
     d8e:	96 17       	cp	r25, r22
     d90:	58 f4       	brcc	.+22     	; 0xda8 <ds18b20crc8+0x26>
     d92:	21 91       	ld	r18, Z+
     d94:	98 e0       	ldi	r25, 0x08	; 8
     d96:	52 2f       	mov	r21, r18
     d98:	58 27       	eor	r21, r24
     d9a:	86 95       	lsr	r24
     d9c:	50 fd       	sbrc	r21, 0
     d9e:	84 27       	eor	r24, r20
     da0:	26 95       	lsr	r18
     da2:	91 50       	subi	r25, 0x01	; 1
     da4:	c1 f7       	brne	.-16     	; 0xd96 <ds18b20crc8+0x14>
     da6:	f1 cf       	rjmp	.-30     	; 0xd8a <ds18b20crc8+0x8>
     da8:	08 95       	ret

00000daa <ds18b20match>:
     daa:	6f 92       	push	r6
     dac:	7f 92       	push	r7
     dae:	9f 92       	push	r9
     db0:	af 92       	push	r10
     db2:	bf 92       	push	r11
     db4:	cf 92       	push	r12
     db6:	df 92       	push	r13
     db8:	ef 92       	push	r14
     dba:	ff 92       	push	r15
     dbc:	0f 93       	push	r16
     dbe:	1f 93       	push	r17
     dc0:	cf 93       	push	r28
     dc2:	df 93       	push	r29
     dc4:	7c 01       	movw	r14, r24
     dc6:	6b 01       	movw	r12, r22
     dc8:	5a 01       	movw	r10, r20
     dca:	92 2e       	mov	r9, r18
     dcc:	e8 01       	movw	r28, r16
     dce:	20 97       	sbiw	r28, 0x00	; 0
     dd0:	21 f4       	brne	.+8      	; 0xdda <ds18b20match+0x30>
     dd2:	0c ec       	ldi	r16, 0xCC	; 204
     dd4:	0e 94 74 0b 	call	0x16e8	; 0x16e8 <onewireWrite>
     dd8:	11 c0       	rjmp	.+34     	; 0xdfc <ds18b20match+0x52>
     dda:	05 e5       	ldi	r16, 0x55	; 85
     ddc:	0e 94 74 0b 	call	0x16e8	; 0x16e8 <onewireWrite>
     de0:	3e 01       	movw	r6, r28
     de2:	88 e0       	ldi	r24, 0x08	; 8
     de4:	68 0e       	add	r6, r24
     de6:	71 1c       	adc	r7, r1
     de8:	09 91       	ld	r16, Y+
     dea:	29 2d       	mov	r18, r9
     dec:	a5 01       	movw	r20, r10
     dee:	b6 01       	movw	r22, r12
     df0:	c7 01       	movw	r24, r14
     df2:	0e 94 74 0b 	call	0x16e8	; 0x16e8 <onewireWrite>
     df6:	c6 15       	cp	r28, r6
     df8:	d7 05       	cpc	r29, r7
     dfa:	b1 f7       	brne	.-20     	; 0xde8 <ds18b20match+0x3e>
     dfc:	df 91       	pop	r29
     dfe:	cf 91       	pop	r28
     e00:	1f 91       	pop	r17
     e02:	0f 91       	pop	r16
     e04:	ff 90       	pop	r15
     e06:	ef 90       	pop	r14
     e08:	df 90       	pop	r13
     e0a:	cf 90       	pop	r12
     e0c:	bf 90       	pop	r11
     e0e:	af 90       	pop	r10
     e10:	9f 90       	pop	r9
     e12:	7f 90       	pop	r7
     e14:	6f 90       	pop	r6
     e16:	08 95       	ret

00000e18 <ds18b20convert>:
     e18:	bf 92       	push	r11
     e1a:	cf 92       	push	r12
     e1c:	df 92       	push	r13
     e1e:	ef 92       	push	r14
     e20:	ff 92       	push	r15
     e22:	0f 93       	push	r16
     e24:	1f 93       	push	r17
     e26:	cf 93       	push	r28
     e28:	df 93       	push	r29
     e2a:	ec 01       	movw	r28, r24
     e2c:	7b 01       	movw	r14, r22
     e2e:	6a 01       	movw	r12, r20
     e30:	b2 2e       	mov	r11, r18
     e32:	0e 94 0e 0b 	call	0x161c	; 0x161c <onewireInit>
     e36:	81 30       	cpi	r24, 0x01	; 1
     e38:	71 f0       	breq	.+28     	; 0xe56 <ds18b20convert+0x3e>
     e3a:	2b 2d       	mov	r18, r11
     e3c:	a6 01       	movw	r20, r12
     e3e:	b7 01       	movw	r22, r14
     e40:	ce 01       	movw	r24, r28
     e42:	0e 94 d5 06 	call	0xdaa	; 0xdaa <ds18b20match>
     e46:	04 e4       	ldi	r16, 0x44	; 68
     e48:	2b 2d       	mov	r18, r11
     e4a:	a6 01       	movw	r20, r12
     e4c:	b7 01       	movw	r22, r14
     e4e:	ce 01       	movw	r24, r28
     e50:	0e 94 74 0b 	call	0x16e8	; 0x16e8 <onewireWrite>
     e54:	80 e0       	ldi	r24, 0x00	; 0
     e56:	df 91       	pop	r29
     e58:	cf 91       	pop	r28
     e5a:	1f 91       	pop	r17
     e5c:	0f 91       	pop	r16
     e5e:	ff 90       	pop	r15
     e60:	ef 90       	pop	r14
     e62:	df 90       	pop	r13
     e64:	cf 90       	pop	r12
     e66:	bf 90       	pop	r11
     e68:	08 95       	ret

00000e6a <ds18b20rsp>:
     e6a:	7f 92       	push	r7
     e6c:	8f 92       	push	r8
     e6e:	9f 92       	push	r9
     e70:	af 92       	push	r10
     e72:	bf 92       	push	r11
     e74:	cf 92       	push	r12
     e76:	df 92       	push	r13
     e78:	ef 92       	push	r14
     e7a:	ff 92       	push	r15
     e7c:	0f 93       	push	r16
     e7e:	1f 93       	push	r17
     e80:	cf 93       	push	r28
     e82:	df 93       	push	r29
     e84:	6c 01       	movw	r12, r24
     e86:	5b 01       	movw	r10, r22
     e88:	4a 01       	movw	r8, r20
     e8a:	72 2e       	mov	r7, r18
     e8c:	e7 01       	movw	r28, r14
     e8e:	0e 94 0e 0b 	call	0x161c	; 0x161c <onewireInit>
     e92:	81 30       	cpi	r24, 0x01	; 1
     e94:	c1 f1       	breq	.+112    	; 0xf06 <ds18b20rsp+0x9c>
     e96:	27 2d       	mov	r18, r7
     e98:	a4 01       	movw	r20, r8
     e9a:	b5 01       	movw	r22, r10
     e9c:	c6 01       	movw	r24, r12
     e9e:	0e 94 d5 06 	call	0xdaa	; 0xdaa <ds18b20match>
     ea2:	0e eb       	ldi	r16, 0xBE	; 190
     ea4:	27 2d       	mov	r18, r7
     ea6:	a4 01       	movw	r20, r8
     ea8:	b5 01       	movw	r22, r10
     eaa:	c6 01       	movw	r24, r12
     eac:	0e 94 74 0b 	call	0x16e8	; 0x16e8 <onewireWrite>
     eb0:	8e 01       	movw	r16, r28
     eb2:	07 5f       	subi	r16, 0xF7	; 247
     eb4:	1f 4f       	sbci	r17, 0xFF	; 255
     eb6:	27 2d       	mov	r18, r7
     eb8:	a4 01       	movw	r20, r8
     eba:	b5 01       	movw	r22, r10
     ebc:	c6 01       	movw	r24, r12
     ebe:	0e 94 c8 0b 	call	0x1790	; 0x1790 <onewireRead>
     ec2:	f7 01       	movw	r30, r14
     ec4:	81 93       	st	Z+, r24
     ec6:	7f 01       	movw	r14, r30
     ec8:	e0 17       	cp	r30, r16
     eca:	f1 07       	cpc	r31, r17
     ecc:	a1 f7       	brne	.-24     	; 0xeb6 <ds18b20rsp+0x4c>
     ece:	99 81       	ldd	r25, Y+1	; 0x01
     ed0:	88 81       	ld	r24, Y
     ed2:	89 2b       	or	r24, r25
     ed4:	9a 81       	ldd	r25, Y+2	; 0x02
     ed6:	89 2b       	or	r24, r25
     ed8:	9b 81       	ldd	r25, Y+3	; 0x03
     eda:	89 2b       	or	r24, r25
     edc:	9c 81       	ldd	r25, Y+4	; 0x04
     ede:	89 2b       	or	r24, r25
     ee0:	9d 81       	ldd	r25, Y+5	; 0x05
     ee2:	89 2b       	or	r24, r25
     ee4:	9e 81       	ldd	r25, Y+6	; 0x06
     ee6:	89 2b       	or	r24, r25
     ee8:	9f 81       	ldd	r25, Y+7	; 0x07
     eea:	89 2b       	or	r24, r25
     eec:	49 f0       	breq	.+18     	; 0xf00 <ds18b20rsp+0x96>
     eee:	68 e0       	ldi	r22, 0x08	; 8
     ef0:	ce 01       	movw	r24, r28
     ef2:	0e 94 c1 06 	call	0xd82	; 0xd82 <ds18b20crc8>
     ef6:	98 85       	ldd	r25, Y+8	; 0x08
     ef8:	89 13       	cpse	r24, r25
     efa:	04 c0       	rjmp	.+8      	; 0xf04 <ds18b20rsp+0x9a>
     efc:	80 e0       	ldi	r24, 0x00	; 0
     efe:	03 c0       	rjmp	.+6      	; 0xf06 <ds18b20rsp+0x9c>
     f00:	83 e0       	ldi	r24, 0x03	; 3
     f02:	01 c0       	rjmp	.+2      	; 0xf06 <ds18b20rsp+0x9c>
     f04:	82 e0       	ldi	r24, 0x02	; 2
     f06:	df 91       	pop	r29
     f08:	cf 91       	pop	r28
     f0a:	1f 91       	pop	r17
     f0c:	0f 91       	pop	r16
     f0e:	ff 90       	pop	r15
     f10:	ef 90       	pop	r14
     f12:	df 90       	pop	r13
     f14:	cf 90       	pop	r12
     f16:	bf 90       	pop	r11
     f18:	af 90       	pop	r10
     f1a:	9f 90       	pop	r9
     f1c:	8f 90       	pop	r8
     f1e:	7f 90       	pop	r7
     f20:	08 95       	ret

00000f22 <ds18b20wsp>:
     f22:	6f 92       	push	r6
     f24:	7f 92       	push	r7
     f26:	8f 92       	push	r8
     f28:	9f 92       	push	r9
     f2a:	af 92       	push	r10
     f2c:	cf 92       	push	r12
     f2e:	ef 92       	push	r14
     f30:	ff 92       	push	r15
     f32:	0f 93       	push	r16
     f34:	1f 93       	push	r17
     f36:	cf 93       	push	r28
     f38:	df 93       	push	r29
     f3a:	ec 01       	movw	r28, r24
     f3c:	4b 01       	movw	r8, r22
     f3e:	3a 01       	movw	r6, r20
     f40:	f2 2e       	mov	r15, r18
     f42:	0e 94 0e 0b 	call	0x161c	; 0x161c <onewireInit>
     f46:	81 30       	cpi	r24, 0x01	; 1
     f48:	19 f1       	breq	.+70     	; 0xf90 <ds18b20wsp+0x6e>
     f4a:	2f 2d       	mov	r18, r15
     f4c:	a3 01       	movw	r20, r6
     f4e:	b4 01       	movw	r22, r8
     f50:	ce 01       	movw	r24, r28
     f52:	0e 94 d5 06 	call	0xdaa	; 0xdaa <ds18b20match>
     f56:	0e e4       	ldi	r16, 0x4E	; 78
     f58:	2f 2d       	mov	r18, r15
     f5a:	a3 01       	movw	r20, r6
     f5c:	b4 01       	movw	r22, r8
     f5e:	ce 01       	movw	r24, r28
     f60:	0e 94 74 0b 	call	0x16e8	; 0x16e8 <onewireWrite>
     f64:	0e 2d       	mov	r16, r14
     f66:	2f 2d       	mov	r18, r15
     f68:	a3 01       	movw	r20, r6
     f6a:	b4 01       	movw	r22, r8
     f6c:	ce 01       	movw	r24, r28
     f6e:	0e 94 74 0b 	call	0x16e8	; 0x16e8 <onewireWrite>
     f72:	0c 2d       	mov	r16, r12
     f74:	2f 2d       	mov	r18, r15
     f76:	a3 01       	movw	r20, r6
     f78:	b4 01       	movw	r22, r8
     f7a:	ce 01       	movw	r24, r28
     f7c:	0e 94 74 0b 	call	0x16e8	; 0x16e8 <onewireWrite>
     f80:	0a 2d       	mov	r16, r10
     f82:	2f 2d       	mov	r18, r15
     f84:	a3 01       	movw	r20, r6
     f86:	b4 01       	movw	r22, r8
     f88:	ce 01       	movw	r24, r28
     f8a:	0e 94 74 0b 	call	0x16e8	; 0x16e8 <onewireWrite>
     f8e:	80 e0       	ldi	r24, 0x00	; 0
     f90:	df 91       	pop	r29
     f92:	cf 91       	pop	r28
     f94:	1f 91       	pop	r17
     f96:	0f 91       	pop	r16
     f98:	ff 90       	pop	r15
     f9a:	ef 90       	pop	r14
     f9c:	cf 90       	pop	r12
     f9e:	af 90       	pop	r10
     fa0:	9f 90       	pop	r9
     fa2:	8f 90       	pop	r8
     fa4:	7f 90       	pop	r7
     fa6:	6f 90       	pop	r6
     fa8:	08 95       	ret

00000faa <ds18b20csp>:
     faa:	af 92       	push	r10
     fac:	bf 92       	push	r11
     fae:	cf 92       	push	r12
     fb0:	df 92       	push	r13
     fb2:	ef 92       	push	r14
     fb4:	ff 92       	push	r15
     fb6:	0f 93       	push	r16
     fb8:	1f 93       	push	r17
     fba:	cf 93       	push	r28
     fbc:	6c 01       	movw	r12, r24
     fbe:	7b 01       	movw	r14, r22
     fc0:	5a 01       	movw	r10, r20
     fc2:	c2 2f       	mov	r28, r18
     fc4:	0e 94 0e 0b 	call	0x161c	; 0x161c <onewireInit>
     fc8:	81 30       	cpi	r24, 0x01	; 1
     fca:	b1 f0       	breq	.+44     	; 0xff8 <ds18b20csp+0x4e>
     fcc:	2c 2f       	mov	r18, r28
     fce:	a5 01       	movw	r20, r10
     fd0:	b7 01       	movw	r22, r14
     fd2:	c6 01       	movw	r24, r12
     fd4:	0e 94 d5 06 	call	0xdaa	; 0xdaa <ds18b20match>
     fd8:	08 e4       	ldi	r16, 0x48	; 72
     fda:	2c 2f       	mov	r18, r28
     fdc:	a5 01       	movw	r20, r10
     fde:	b7 01       	movw	r22, r14
     fe0:	c6 01       	movw	r24, r12
     fe2:	0e 94 74 0b 	call	0x16e8	; 0x16e8 <onewireWrite>
     fe6:	f6 01       	movw	r30, r12
     fe8:	80 81       	ld	r24, Z
     fea:	8c 2b       	or	r24, r28
     fec:	80 83       	st	Z, r24
     fee:	f7 01       	movw	r30, r14
     ff0:	80 81       	ld	r24, Z
     ff2:	c8 2b       	or	r28, r24
     ff4:	c0 83       	st	Z, r28
     ff6:	80 e0       	ldi	r24, 0x00	; 0
     ff8:	cf 91       	pop	r28
     ffa:	1f 91       	pop	r17
     ffc:	0f 91       	pop	r16
     ffe:	ff 90       	pop	r15
    1000:	ef 90       	pop	r14
    1002:	df 90       	pop	r13
    1004:	cf 90       	pop	r12
    1006:	bf 90       	pop	r11
    1008:	af 90       	pop	r10
    100a:	08 95       	ret

0000100c <ds18b20read>:
    100c:	cf 92       	push	r12
    100e:	df 92       	push	r13
    1010:	ef 92       	push	r14
    1012:	ff 92       	push	r15
    1014:	0f 93       	push	r16
    1016:	1f 93       	push	r17
    1018:	cf 93       	push	r28
    101a:	df 93       	push	r29
    101c:	cd b7       	in	r28, 0x3d	; 61
    101e:	de b7       	in	r29, 0x3e	; 62
    1020:	29 97       	sbiw	r28, 0x09	; 9
    1022:	0f b6       	in	r0, 0x3f	; 63
    1024:	f8 94       	cli
    1026:	de bf       	out	0x3e, r29	; 62
    1028:	0f be       	out	0x3f, r0	; 63
    102a:	cd bf       	out	0x3d, r28	; 61
    102c:	67 01       	movw	r12, r14
    102e:	fe 01       	movw	r30, r28
    1030:	31 96       	adiw	r30, 0x01	; 1
    1032:	7f 01       	movw	r14, r30
    1034:	0e 94 35 07 	call	0xe6a	; 0xe6a <ds18b20rsp>
    1038:	88 23       	and	r24, r24
    103a:	21 f0       	breq	.+8      	; 0x1044 <ds18b20read+0x38>
    103c:	f6 01       	movw	r30, r12
    103e:	11 82       	std	Z+1, r1	; 0x01
    1040:	10 82       	st	Z, r1
    1042:	0b c0       	rjmp	.+22     	; 0x105a <ds18b20read+0x4e>
    1044:	8a 81       	ldd	r24, Y+2	; 0x02
    1046:	90 e0       	ldi	r25, 0x00	; 0
    1048:	98 2f       	mov	r25, r24
    104a:	88 27       	eor	r24, r24
    104c:	29 81       	ldd	r18, Y+1	; 0x01
    104e:	82 0f       	add	r24, r18
    1050:	91 1d       	adc	r25, r1
    1052:	f6 01       	movw	r30, r12
    1054:	91 83       	std	Z+1, r25	; 0x01
    1056:	80 83       	st	Z, r24
    1058:	80 e0       	ldi	r24, 0x00	; 0
    105a:	29 96       	adiw	r28, 0x09	; 9
    105c:	0f b6       	in	r0, 0x3f	; 63
    105e:	f8 94       	cli
    1060:	de bf       	out	0x3e, r29	; 62
    1062:	0f be       	out	0x3f, r0	; 63
    1064:	cd bf       	out	0x3d, r28	; 61
    1066:	df 91       	pop	r29
    1068:	cf 91       	pop	r28
    106a:	1f 91       	pop	r17
    106c:	0f 91       	pop	r16
    106e:	ff 90       	pop	r15
    1070:	ef 90       	pop	r14
    1072:	df 90       	pop	r13
    1074:	cf 90       	pop	r12
    1076:	08 95       	ret

00001078 <ds18b20rom>:
    1078:	5f 92       	push	r5
    107a:	6f 92       	push	r6
    107c:	7f 92       	push	r7
    107e:	8f 92       	push	r8
    1080:	9f 92       	push	r9
    1082:	af 92       	push	r10
    1084:	bf 92       	push	r11
    1086:	cf 92       	push	r12
    1088:	df 92       	push	r13
    108a:	ef 92       	push	r14
    108c:	ff 92       	push	r15
    108e:	0f 93       	push	r16
    1090:	1f 93       	push	r17
    1092:	cf 93       	push	r28
    1094:	df 93       	push	r29
    1096:	01 15       	cp	r16, r1
    1098:	11 05       	cpc	r17, r1
    109a:	09 f4       	brne	.+2      	; 0x109e <ds18b20rom+0x26>
    109c:	40 c0       	rjmp	.+128    	; 0x111e <__stack+0x1f>
    109e:	e8 01       	movw	r28, r16
    10a0:	52 2e       	mov	r5, r18
    10a2:	5a 01       	movw	r10, r20
    10a4:	6b 01       	movw	r12, r22
    10a6:	7c 01       	movw	r14, r24
    10a8:	0e 94 0e 0b 	call	0x161c	; 0x161c <onewireInit>
    10ac:	81 30       	cpi	r24, 0x01	; 1
    10ae:	e1 f1       	breq	.+120    	; 0x1128 <__stack+0x29>
    10b0:	03 e3       	ldi	r16, 0x33	; 51
    10b2:	25 2d       	mov	r18, r5
    10b4:	a5 01       	movw	r20, r10
    10b6:	b6 01       	movw	r22, r12
    10b8:	c7 01       	movw	r24, r14
    10ba:	0e 94 74 0b 	call	0x16e8	; 0x16e8 <onewireWrite>
    10be:	8e 01       	movw	r16, r28
    10c0:	3e 01       	movw	r6, r28
    10c2:	88 e0       	ldi	r24, 0x08	; 8
    10c4:	68 0e       	add	r6, r24
    10c6:	71 1c       	adc	r7, r1
    10c8:	4e 01       	movw	r8, r28
    10ca:	25 2d       	mov	r18, r5
    10cc:	a5 01       	movw	r20, r10
    10ce:	b6 01       	movw	r22, r12
    10d0:	c7 01       	movw	r24, r14
    10d2:	0e 94 c8 0b 	call	0x1790	; 0x1790 <onewireRead>
    10d6:	f4 01       	movw	r30, r8
    10d8:	81 93       	st	Z+, r24
    10da:	4f 01       	movw	r8, r30
    10dc:	e6 15       	cp	r30, r6
    10de:	f7 05       	cpc	r31, r7
    10e0:	a1 f7       	brne	.-24     	; 0x10ca <ds18b20rom+0x52>
    10e2:	ff 80       	ldd	r15, Y+7	; 0x07
    10e4:	99 81       	ldd	r25, Y+1	; 0x01
    10e6:	88 81       	ld	r24, Y
    10e8:	89 2b       	or	r24, r25
    10ea:	9a 81       	ldd	r25, Y+2	; 0x02
    10ec:	89 2b       	or	r24, r25
    10ee:	9b 81       	ldd	r25, Y+3	; 0x03
    10f0:	89 2b       	or	r24, r25
    10f2:	9c 81       	ldd	r25, Y+4	; 0x04
    10f4:	89 2b       	or	r24, r25
    10f6:	9d 81       	ldd	r25, Y+5	; 0x05
    10f8:	89 2b       	or	r24, r25
    10fa:	9e 81       	ldd	r25, Y+6	; 0x06
    10fc:	89 2b       	or	r24, r25
    10fe:	8f 29       	or	r24, r15
    1100:	81 f0       	breq	.+32     	; 0x1122 <__stack+0x23>
    1102:	67 e0       	ldi	r22, 0x07	; 7
    1104:	ce 01       	movw	r24, r28
    1106:	0e 94 c1 06 	call	0xd82	; 0xd82 <ds18b20crc8>
    110a:	8f 15       	cp	r24, r15
    110c:	61 f0       	breq	.+24     	; 0x1126 <__stack+0x27>
    110e:	f8 01       	movw	r30, r16
    1110:	11 92       	st	Z+, r1
    1112:	8f 01       	movw	r16, r30
    1114:	e6 15       	cp	r30, r6
    1116:	f7 05       	cpc	r31, r7
    1118:	d1 f7       	brne	.-12     	; 0x110e <__stack+0xf>
    111a:	82 e0       	ldi	r24, 0x02	; 2
    111c:	05 c0       	rjmp	.+10     	; 0x1128 <__stack+0x29>
    111e:	84 e0       	ldi	r24, 0x04	; 4
    1120:	03 c0       	rjmp	.+6      	; 0x1128 <__stack+0x29>
    1122:	83 e0       	ldi	r24, 0x03	; 3
    1124:	01 c0       	rjmp	.+2      	; 0x1128 <__stack+0x29>
    1126:	80 e0       	ldi	r24, 0x00	; 0
    1128:	df 91       	pop	r29
    112a:	cf 91       	pop	r28
    112c:	1f 91       	pop	r17
    112e:	0f 91       	pop	r16
    1130:	ff 90       	pop	r15
    1132:	ef 90       	pop	r14
    1134:	df 90       	pop	r13
    1136:	cf 90       	pop	r12
    1138:	bf 90       	pop	r11
    113a:	af 90       	pop	r10
    113c:	9f 90       	pop	r9
    113e:	8f 90       	pop	r8
    1140:	7f 90       	pop	r7
    1142:	6f 90       	pop	r6
    1144:	5f 90       	pop	r5
    1146:	08 95       	ret

00001148 <ds18b20read_temp>:
    1148:	af 92       	push	r10
    114a:	cf 92       	push	r12
    114c:	ef 92       	push	r14
    114e:	ff 92       	push	r15
    1150:	0f 93       	push	r16
    1152:	1f 93       	push	r17
    1154:	cf 93       	push	r28
    1156:	df 93       	push	r29
    1158:	ec 01       	movw	r28, r24
    115a:	00 e0       	ldi	r16, 0x00	; 0
    115c:	10 e0       	ldi	r17, 0x00	; 0
    115e:	20 e8       	ldi	r18, 0x80	; 128
    1160:	46 e3       	ldi	r20, 0x36	; 54
    1162:	50 e0       	ldi	r21, 0x00	; 0
    1164:	67 e3       	ldi	r22, 0x37	; 55
    1166:	70 e0       	ldi	r23, 0x00	; 0
    1168:	88 e3       	ldi	r24, 0x38	; 56
    116a:	90 e0       	ldi	r25, 0x00	; 0
    116c:	0e 94 0c 07 	call	0xe18	; 0xe18 <ds18b20convert>
    1170:	80 e2       	ldi	r24, 0x20	; 32
    1172:	a8 2e       	mov	r10, r24
    1174:	c1 2c       	mov	r12, r1
    1176:	e1 2c       	mov	r14, r1
    1178:	20 e8       	ldi	r18, 0x80	; 128
    117a:	46 e3       	ldi	r20, 0x36	; 54
    117c:	50 e0       	ldi	r21, 0x00	; 0
    117e:	67 e3       	ldi	r22, 0x37	; 55
    1180:	70 e0       	ldi	r23, 0x00	; 0
    1182:	88 e3       	ldi	r24, 0x38	; 56
    1184:	90 e0       	ldi	r25, 0x00	; 0
    1186:	0e 94 91 07 	call	0xf22	; 0xf22 <ds18b20wsp>
    118a:	20 e8       	ldi	r18, 0x80	; 128
    118c:	46 e3       	ldi	r20, 0x36	; 54
    118e:	50 e0       	ldi	r21, 0x00	; 0
    1190:	67 e3       	ldi	r22, 0x37	; 55
    1192:	70 e0       	ldi	r23, 0x00	; 0
    1194:	88 e3       	ldi	r24, 0x38	; 56
    1196:	90 e0       	ldi	r25, 0x00	; 0
    1198:	0e 94 0c 07 	call	0xe18	; 0xe18 <ds18b20convert>
    119c:	7e 01       	movw	r14, r28
    119e:	20 e8       	ldi	r18, 0x80	; 128
    11a0:	46 e3       	ldi	r20, 0x36	; 54
    11a2:	50 e0       	ldi	r21, 0x00	; 0
    11a4:	67 e3       	ldi	r22, 0x37	; 55
    11a6:	70 e0       	ldi	r23, 0x00	; 0
    11a8:	88 e3       	ldi	r24, 0x38	; 56
    11aa:	90 e0       	ldi	r25, 0x00	; 0
    11ac:	0e 94 06 08 	call	0x100c	; 0x100c <ds18b20read>
    11b0:	81 e0       	ldi	r24, 0x01	; 1
    11b2:	df 91       	pop	r29
    11b4:	cf 91       	pop	r28
    11b6:	1f 91       	pop	r17
    11b8:	0f 91       	pop	r16
    11ba:	ff 90       	pop	r15
    11bc:	ef 90       	pop	r14
    11be:	cf 90       	pop	r12
    11c0:	af 90       	pop	r10
    11c2:	08 95       	ret

000011c4 <I2CInit>:
    11c4:	0e 94 88 11 	call	0x2310	; 0x2310 <__udivmodhi4>
    11c8:	60 51       	subi	r22, 0x10	; 16
    11ca:	71 09       	sbc	r23, r1
    11cc:	76 95       	lsr	r23
    11ce:	67 95       	ror	r22
    11d0:	60 93 70 00 	sts	0x0070, r22	; 0x800070 <__TEXT_REGION_LENGTH__+0x7e0070>
    11d4:	10 92 71 00 	sts	0x0071, r1	; 0x800071 <__TEXT_REGION_LENGTH__+0x7e0071>
    11d8:	e4 e7       	ldi	r30, 0x74	; 116
    11da:	f0 e0       	ldi	r31, 0x00	; 0
    11dc:	80 81       	ld	r24, Z
    11de:	84 60       	ori	r24, 0x04	; 4
    11e0:	80 83       	st	Z, r24
    11e2:	08 95       	ret

000011e4 <I2CClose>:
    11e4:	e4 e7       	ldi	r30, 0x74	; 116
    11e6:	f0 e0       	ldi	r31, 0x00	; 0
    11e8:	80 81       	ld	r24, Z
    11ea:	8b 7f       	andi	r24, 0xFB	; 251
    11ec:	80 83       	st	Z, r24
    11ee:	08 95       	ret

000011f0 <I2CStart>:
    11f0:	84 ea       	ldi	r24, 0xA4	; 164
    11f2:	80 93 74 00 	sts	0x0074, r24	; 0x800074 <__TEXT_REGION_LENGTH__+0x7e0074>
    11f6:	80 91 74 00 	lds	r24, 0x0074	; 0x800074 <__TEXT_REGION_LENGTH__+0x7e0074>
    11fa:	87 ff       	sbrs	r24, 7
    11fc:	fc cf       	rjmp	.-8      	; 0x11f6 <I2CStart+0x6>
    11fe:	08 95       	ret

00001200 <I2CStop>:
    1200:	84 e9       	ldi	r24, 0x94	; 148
    1202:	80 93 74 00 	sts	0x0074, r24	; 0x800074 <__TEXT_REGION_LENGTH__+0x7e0074>
    1206:	80 91 74 00 	lds	r24, 0x0074	; 0x800074 <__TEXT_REGION_LENGTH__+0x7e0074>
    120a:	84 fd       	sbrc	r24, 4
    120c:	fc cf       	rjmp	.-8      	; 0x1206 <I2CStop+0x6>
    120e:	08 95       	ret

00001210 <I2CWriteByte>:
    1210:	80 93 73 00 	sts	0x0073, r24	; 0x800073 <__TEXT_REGION_LENGTH__+0x7e0073>
    1214:	84 e8       	ldi	r24, 0x84	; 132
    1216:	80 93 74 00 	sts	0x0074, r24	; 0x800074 <__TEXT_REGION_LENGTH__+0x7e0074>
    121a:	80 91 74 00 	lds	r24, 0x0074	; 0x800074 <__TEXT_REGION_LENGTH__+0x7e0074>
    121e:	87 ff       	sbrs	r24, 7
    1220:	fc cf       	rjmp	.-8      	; 0x121a <I2CWriteByte+0xa>
    1222:	80 91 71 00 	lds	r24, 0x0071	; 0x800071 <__TEXT_REGION_LENGTH__+0x7e0071>
    1226:	88 7f       	andi	r24, 0xF8	; 248
    1228:	88 31       	cpi	r24, 0x18	; 24
    122a:	69 f0       	breq	.+26     	; 0x1246 <I2CWriteByte+0x36>
    122c:	80 91 71 00 	lds	r24, 0x0071	; 0x800071 <__TEXT_REGION_LENGTH__+0x7e0071>
    1230:	88 7f       	andi	r24, 0xF8	; 248
    1232:	88 32       	cpi	r24, 0x28	; 40
    1234:	41 f0       	breq	.+16     	; 0x1246 <I2CWriteByte+0x36>
    1236:	90 91 71 00 	lds	r25, 0x0071	; 0x800071 <__TEXT_REGION_LENGTH__+0x7e0071>
    123a:	98 7f       	andi	r25, 0xF8	; 248
    123c:	81 e0       	ldi	r24, 0x01	; 1
    123e:	90 34       	cpi	r25, 0x40	; 64
    1240:	19 f0       	breq	.+6      	; 0x1248 <I2CWriteByte+0x38>
    1242:	80 e0       	ldi	r24, 0x00	; 0
    1244:	08 95       	ret
    1246:	81 e0       	ldi	r24, 0x01	; 1
    1248:	08 95       	ret

0000124a <I2CReadByte>:
    124a:	fc 01       	movw	r30, r24
    124c:	90 91 74 00 	lds	r25, 0x0074	; 0x800074 <__TEXT_REGION_LENGTH__+0x7e0074>
    1250:	66 23       	and	r22, r22
    1252:	11 f0       	breq	.+4      	; 0x1258 <I2CReadByte+0xe>
    1254:	90 64       	ori	r25, 0x40	; 64
    1256:	01 c0       	rjmp	.+2      	; 0x125a <I2CReadByte+0x10>
    1258:	9f 7b       	andi	r25, 0xBF	; 191
    125a:	90 93 74 00 	sts	0x0074, r25	; 0x800074 <__TEXT_REGION_LENGTH__+0x7e0074>
    125e:	90 91 74 00 	lds	r25, 0x0074	; 0x800074 <__TEXT_REGION_LENGTH__+0x7e0074>
    1262:	90 68       	ori	r25, 0x80	; 128
    1264:	90 93 74 00 	sts	0x0074, r25	; 0x800074 <__TEXT_REGION_LENGTH__+0x7e0074>
    1268:	80 91 74 00 	lds	r24, 0x0074	; 0x800074 <__TEXT_REGION_LENGTH__+0x7e0074>
    126c:	87 ff       	sbrs	r24, 7
    126e:	fc cf       	rjmp	.-8      	; 0x1268 <I2CReadByte+0x1e>
    1270:	90 91 71 00 	lds	r25, 0x0071	; 0x800071 <__TEXT_REGION_LENGTH__+0x7e0071>
    1274:	98 7f       	andi	r25, 0xF8	; 248
    1276:	98 35       	cpi	r25, 0x58	; 88
    1278:	29 f0       	breq	.+10     	; 0x1284 <I2CReadByte+0x3a>
    127a:	90 91 71 00 	lds	r25, 0x0071	; 0x800071 <__TEXT_REGION_LENGTH__+0x7e0071>
    127e:	98 7f       	andi	r25, 0xF8	; 248
    1280:	90 35       	cpi	r25, 0x50	; 80
    1282:	29 f4       	brne	.+10     	; 0x128e <I2CReadByte+0x44>
    1284:	80 91 73 00 	lds	r24, 0x0073	; 0x800073 <__TEXT_REGION_LENGTH__+0x7e0073>
    1288:	80 83       	st	Z, r24
    128a:	81 e0       	ldi	r24, 0x01	; 1
    128c:	08 95       	ret
    128e:	80 e0       	ldi	r24, 0x00	; 0
    1290:	08 95       	ret

00001292 <I2CWriteRegister>:
    1292:	cf 93       	push	r28
    1294:	df 93       	push	r29
    1296:	00 d0       	rcall	.+0      	; 0x1298 <I2CWriteRegister+0x6>
    1298:	1f 92       	push	r1
    129a:	cd b7       	in	r28, 0x3d	; 61
    129c:	de b7       	in	r29, 0x3e	; 62
    129e:	4b 83       	std	Y+3, r20	; 0x03
    12a0:	6a 83       	std	Y+2, r22	; 0x02
    12a2:	89 83       	std	Y+1, r24	; 0x01
    12a4:	0e 94 f8 08 	call	0x11f0	; 0x11f0 <I2CStart>
    12a8:	89 81       	ldd	r24, Y+1	; 0x01
    12aa:	88 0f       	add	r24, r24
    12ac:	0e 94 08 09 	call	0x1210	; 0x1210 <I2CWriteByte>
    12b0:	6a 81       	ldd	r22, Y+2	; 0x02
    12b2:	86 2f       	mov	r24, r22
    12b4:	0e 94 08 09 	call	0x1210	; 0x1210 <I2CWriteByte>
    12b8:	4b 81       	ldd	r20, Y+3	; 0x03
    12ba:	84 2f       	mov	r24, r20
    12bc:	0e 94 08 09 	call	0x1210	; 0x1210 <I2CWriteByte>
    12c0:	8f e1       	ldi	r24, 0x1F	; 31
    12c2:	9e e4       	ldi	r25, 0x4E	; 78
    12c4:	01 97       	sbiw	r24, 0x01	; 1
    12c6:	f1 f7       	brne	.-4      	; 0x12c4 <I2CWriteRegister+0x32>
    12c8:	00 c0       	rjmp	.+0      	; 0x12ca <I2CWriteRegister+0x38>
    12ca:	00 00       	nop
    12cc:	0e 94 00 09 	call	0x1200	; 0x1200 <I2CStop>
    12d0:	8f ed       	ldi	r24, 0xDF	; 223
    12d2:	9e e2       	ldi	r25, 0x2E	; 46
    12d4:	01 97       	sbiw	r24, 0x01	; 1
    12d6:	f1 f7       	brne	.-4      	; 0x12d4 <I2CWriteRegister+0x42>
    12d8:	00 c0       	rjmp	.+0      	; 0x12da <I2CWriteRegister+0x48>
    12da:	00 00       	nop
    12dc:	0f 90       	pop	r0
    12de:	0f 90       	pop	r0
    12e0:	0f 90       	pop	r0
    12e2:	df 91       	pop	r29
    12e4:	cf 91       	pop	r28
    12e6:	08 95       	ret

000012e8 <I2CReadBytes>:
    12e8:	ef 92       	push	r14
    12ea:	ff 92       	push	r15
    12ec:	0f 93       	push	r16
    12ee:	1f 93       	push	r17
    12f0:	cf 93       	push	r28
    12f2:	df 93       	push	r29
    12f4:	00 d0       	rcall	.+0      	; 0x12f6 <I2CReadBytes+0xe>
    12f6:	cd b7       	in	r28, 0x3d	; 61
    12f8:	de b7       	in	r29, 0x3e	; 62
    12fa:	f8 2e       	mov	r15, r24
    12fc:	04 2f       	mov	r16, r20
    12fe:	12 2f       	mov	r17, r18
    1300:	3a 83       	std	Y+2, r19	; 0x02
    1302:	69 83       	std	Y+1, r22	; 0x01
    1304:	0e 94 f8 08 	call	0x11f0	; 0x11f0 <I2CStart>
    1308:	ff 0c       	add	r15, r15
    130a:	8f 2d       	mov	r24, r15
    130c:	0e 94 08 09 	call	0x1210	; 0x1210 <I2CWriteByte>
    1310:	69 81       	ldd	r22, Y+1	; 0x01
    1312:	86 2f       	mov	r24, r22
    1314:	0e 94 08 09 	call	0x1210	; 0x1210 <I2CWriteByte>
    1318:	0e 94 f8 08 	call	0x11f0	; 0x11f0 <I2CStart>
    131c:	81 e0       	ldi	r24, 0x01	; 1
    131e:	8f 0d       	add	r24, r15
    1320:	0e 94 08 09 	call	0x1210	; 0x1210 <I2CWriteByte>
    1324:	e1 2e       	mov	r14, r17
    1326:	3a 81       	ldd	r19, Y+2	; 0x02
    1328:	f3 2e       	mov	r15, r19
    132a:	8e 2d       	mov	r24, r14
    132c:	81 1b       	sub	r24, r17
    132e:	80 17       	cp	r24, r16
    1330:	40 f4       	brcc	.+16     	; 0x1342 <I2CReadBytes+0x5a>
    1332:	61 e0       	ldi	r22, 0x01	; 1
    1334:	c7 01       	movw	r24, r14
    1336:	0e 94 25 09 	call	0x124a	; 0x124a <I2CReadByte>
    133a:	8f ef       	ldi	r24, 0xFF	; 255
    133c:	e8 1a       	sub	r14, r24
    133e:	f8 0a       	sbc	r15, r24
    1340:	f4 cf       	rjmp	.-24     	; 0x132a <I2CReadBytes+0x42>
    1342:	0f 90       	pop	r0
    1344:	0f 90       	pop	r0
    1346:	df 91       	pop	r29
    1348:	cf 91       	pop	r28
    134a:	1f 91       	pop	r17
    134c:	0f 91       	pop	r16
    134e:	ff 90       	pop	r15
    1350:	ef 90       	pop	r14
    1352:	08 95       	ret

00001354 <USART_PutChar>:
    1354:	cf 93       	push	r28
    1356:	c8 2f       	mov	r28, r24
    1358:	8a 30       	cpi	r24, 0x0A	; 10
    135a:	19 f4       	brne	.+6      	; 0x1362 <USART_PutChar+0xe>
    135c:	8d e0       	ldi	r24, 0x0D	; 13
    135e:	0e 94 aa 09 	call	0x1354	; 0x1354 <USART_PutChar>
    1362:	8c 2f       	mov	r24, r28
    1364:	0e 94 ac 0d 	call	0x1b58	; 0x1b58 <USART_SendByte>
    1368:	80 e0       	ldi	r24, 0x00	; 0
    136a:	cf 91       	pop	r28
    136c:	08 95       	ret

0000136e <main>:
    136e:	2f 92       	push	r2
    1370:	3f 92       	push	r3
    1372:	4f 92       	push	r4
    1374:	5f 92       	push	r5
    1376:	6f 92       	push	r6
    1378:	7f 92       	push	r7
    137a:	8f 92       	push	r8
    137c:	9f 92       	push	r9
    137e:	af 92       	push	r10
    1380:	bf 92       	push	r11
    1382:	cf 92       	push	r12
    1384:	df 92       	push	r13
    1386:	ef 92       	push	r14
    1388:	ff 92       	push	r15
    138a:	0f 93       	push	r16
    138c:	1f 93       	push	r17
    138e:	cf 93       	push	r28
    1390:	df 93       	push	r29
    1392:	cd b7       	in	r28, 0x3d	; 61
    1394:	de b7       	in	r29, 0x3e	; 62
    1396:	6e 97       	sbiw	r28, 0x1e	; 30
    1398:	0f b6       	in	r0, 0x3f	; 63
    139a:	f8 94       	cli
    139c:	de bf       	out	0x3e, r29	; 62
    139e:	0f be       	out	0x3f, r0	; 63
    13a0:	cd bf       	out	0x3d, r28	; 61
    13a2:	80 e8       	ldi	r24, 0x80	; 128
    13a4:	95 e2       	ldi	r25, 0x25	; 37
    13a6:	0e 94 98 0d 	call	0x1b30	; 0x1b30 <USART_Init>
    13aa:	60 ea       	ldi	r22, 0xA0	; 160
    13ac:	76 e8       	ldi	r23, 0x86	; 134
    13ae:	80 e0       	ldi	r24, 0x00	; 0
    13b0:	92 e1       	ldi	r25, 0x12	; 18
    13b2:	0e 94 e2 08 	call	0x11c4	; 0x11c4 <I2CInit>
    13b6:	80 e0       	ldi	r24, 0x00	; 0
    13b8:	91 e0       	ldi	r25, 0x01	; 1
    13ba:	90 93 fe 01 	sts	0x01FE, r25	; 0x8001fe <__iob+0x3>
    13be:	80 93 fd 01 	sts	0x01FD, r24	; 0x8001fd <__iob+0x2>
    13c2:	8e e0       	ldi	r24, 0x0E	; 14
    13c4:	91 e0       	ldi	r25, 0x01	; 1
    13c6:	9f 93       	push	r25
    13c8:	8f 93       	push	r24
    13ca:	0e 94 09 17 	call	0x2e12	; 0x2e12 <printf>
    13ce:	87 e7       	ldi	r24, 0x77	; 119
    13d0:	0e 94 bf 02 	call	0x57e	; 0x57e <BMP280_begin>
    13d4:	0f 90       	pop	r0
    13d6:	0f 90       	pop	r0
    13d8:	81 30       	cpi	r24, 0x01	; 1
    13da:	b9 f4       	brne	.+46     	; 0x140a <main+0x9c>
    13dc:	84 e1       	ldi	r24, 0x14	; 20
    13de:	91 e0       	ldi	r25, 0x01	; 1
    13e0:	0e 94 1d 17 	call	0x2e3a	; 0x2e3a <puts>
    13e4:	8d e1       	ldi	r24, 0x1D	; 29
    13e6:	0e 94 4d 01 	call	0x29a	; 0x29a <ADXL345_begin>
    13ea:	81 30       	cpi	r24, 0x01	; 1
    13ec:	89 f4       	brne	.+34     	; 0x1410 <main+0xa2>
    13ee:	82 e4       	ldi	r24, 0x42	; 66
    13f0:	91 e0       	ldi	r25, 0x01	; 1
    13f2:	9f 93       	push	r25
    13f4:	8f 93       	push	r24
    13f6:	0e 94 09 17 	call	0x2e12	; 0x2e12 <printf>
    13fa:	0f 90       	pop	r0
    13fc:	0f 90       	pop	r0
    13fe:	0a e0       	ldi	r16, 0x0A	; 10
    1400:	10 e0       	ldi	r17, 0x00	; 0
    1402:	c1 2c       	mov	r12, r1
    1404:	d1 2c       	mov	r13, r1
    1406:	76 01       	movw	r14, r12
    1408:	0c c0       	rjmp	.+24     	; 0x1422 <main+0xb4>
    140a:	89 e2       	ldi	r24, 0x29	; 41
    140c:	91 e0       	ldi	r25, 0x01	; 1
    140e:	e9 c0       	rjmp	.+466    	; 0x15e2 <main+0x274>
    1410:	8f e4       	ldi	r24, 0x4F	; 79
    1412:	91 e0       	ldi	r25, 0x01	; 1
    1414:	9f 93       	push	r25
    1416:	8f 93       	push	r24
    1418:	0e 94 09 17 	call	0x2e12	; 0x2e12 <printf>
    141c:	0f 90       	pop	r0
    141e:	0f 90       	pop	r0
    1420:	e2 c0       	rjmp	.+452    	; 0x15e6 <main+0x278>
    1422:	ae 01       	movw	r20, r28
    1424:	43 5f       	subi	r20, 0xF3	; 243
    1426:	5f 4f       	sbci	r21, 0xFF	; 255
    1428:	be 01       	movw	r22, r28
    142a:	6f 5e       	subi	r22, 0xEF	; 239
    142c:	7f 4f       	sbci	r23, 0xFF	; 255
    142e:	ce 01       	movw	r24, r28
    1430:	45 96       	adiw	r24, 0x15	; 21
    1432:	0e 94 97 06 	call	0xd2e	; 0xd2e <BMP280_receiveData>
    1436:	2d 85       	ldd	r18, Y+13	; 0x0d
    1438:	3e 85       	ldd	r19, Y+14	; 0x0e
    143a:	4f 85       	ldd	r20, Y+15	; 0x0f
    143c:	58 89       	ldd	r21, Y+16	; 0x10
    143e:	c7 01       	movw	r24, r14
    1440:	b6 01       	movw	r22, r12
    1442:	0e 94 0f 12 	call	0x241e	; 0x241e <__addsf3>
    1446:	6b 01       	movw	r12, r22
    1448:	7c 01       	movw	r14, r24
    144a:	01 50       	subi	r16, 0x01	; 1
    144c:	11 09       	sbc	r17, r1
    144e:	49 f7       	brne	.-46     	; 0x1422 <main+0xb4>
    1450:	20 e0       	ldi	r18, 0x00	; 0
    1452:	30 e0       	ldi	r19, 0x00	; 0
    1454:	40 e2       	ldi	r20, 0x20	; 32
    1456:	51 e4       	ldi	r21, 0x41	; 65
    1458:	0e 94 80 12 	call	0x2500	; 0x2500 <__divsf3>
    145c:	6b 8f       	std	Y+27, r22	; 0x1b
    145e:	7c 8f       	std	Y+28, r23	; 0x1c
    1460:	8d 8f       	std	Y+29, r24	; 0x1d
    1462:	9e 8f       	std	Y+30, r25	; 0x1e
    1464:	80 e6       	ldi	r24, 0x60	; 96
    1466:	28 2e       	mov	r2, r24
    1468:	81 e0       	ldi	r24, 0x01	; 1
    146a:	38 2e       	mov	r3, r24
    146c:	ae 01       	movw	r20, r28
    146e:	43 5f       	subi	r20, 0xF3	; 243
    1470:	5f 4f       	sbci	r21, 0xFF	; 255
    1472:	be 01       	movw	r22, r28
    1474:	6f 5e       	subi	r22, 0xEF	; 239
    1476:	7f 4f       	sbci	r23, 0xFF	; 255
    1478:	ce 01       	movw	r24, r28
    147a:	45 96       	adiw	r24, 0x15	; 21
    147c:	0e 94 97 06 	call	0xd2e	; 0xd2e <BMP280_receiveData>
    1480:	18 2f       	mov	r17, r24
    1482:	ae 01       	movw	r20, r28
    1484:	4f 5f       	subi	r20, 0xFF	; 255
    1486:	5f 4f       	sbci	r21, 0xFF	; 255
    1488:	be 01       	movw	r22, r28
    148a:	6b 5f       	subi	r22, 0xFB	; 251
    148c:	7f 4f       	sbci	r23, 0xFF	; 255
    148e:	ce 01       	movw	r24, r28
    1490:	09 96       	adiw	r24, 0x09	; 9
    1492:	0e 94 a4 01 	call	0x348	; 0x348 <ADXL345_readXYZ>
    1496:	08 2f       	mov	r16, r24
    1498:	69 85       	ldd	r22, Y+9	; 0x09
    149a:	7a 85       	ldd	r23, Y+10	; 0x0a
    149c:	8b 85       	ldd	r24, Y+11	; 0x0b
    149e:	9c 85       	ldd	r25, Y+12	; 0x0c
    14a0:	8d 80       	ldd	r8, Y+5	; 0x05
    14a2:	9e 80       	ldd	r9, Y+6	; 0x06
    14a4:	af 80       	ldd	r10, Y+7	; 0x07
    14a6:	b8 84       	ldd	r11, Y+8	; 0x08
    14a8:	c9 80       	ldd	r12, Y+1	; 0x01
    14aa:	da 80       	ldd	r13, Y+2	; 0x02
    14ac:	eb 80       	ldd	r14, Y+3	; 0x03
    14ae:	fc 80       	ldd	r15, Y+4	; 0x04
    14b0:	9b 01       	movw	r18, r22
    14b2:	ac 01       	movw	r20, r24
    14b4:	0e 94 a4 13 	call	0x2748	; 0x2748 <__mulsf3>
    14b8:	2b 01       	movw	r4, r22
    14ba:	3c 01       	movw	r6, r24
    14bc:	a5 01       	movw	r20, r10
    14be:	94 01       	movw	r18, r8
    14c0:	c5 01       	movw	r24, r10
    14c2:	b4 01       	movw	r22, r8
    14c4:	0e 94 a4 13 	call	0x2748	; 0x2748 <__mulsf3>
    14c8:	9b 01       	movw	r18, r22
    14ca:	ac 01       	movw	r20, r24
    14cc:	c3 01       	movw	r24, r6
    14ce:	b2 01       	movw	r22, r4
    14d0:	0e 94 0f 12 	call	0x241e	; 0x241e <__addsf3>
    14d4:	4b 01       	movw	r8, r22
    14d6:	5c 01       	movw	r10, r24
    14d8:	a7 01       	movw	r20, r14
    14da:	96 01       	movw	r18, r12
    14dc:	c7 01       	movw	r24, r14
    14de:	b6 01       	movw	r22, r12
    14e0:	0e 94 a4 13 	call	0x2748	; 0x2748 <__mulsf3>
    14e4:	9b 01       	movw	r18, r22
    14e6:	ac 01       	movw	r20, r24
    14e8:	c5 01       	movw	r24, r10
    14ea:	b4 01       	movw	r22, r8
    14ec:	0e 94 0f 12 	call	0x241e	; 0x241e <__addsf3>
    14f0:	0e 94 67 14 	call	0x28ce	; 0x28ce <sqrt>
    14f4:	f6 2e       	mov	r15, r22
    14f6:	e7 2e       	mov	r14, r23
    14f8:	d8 2e       	mov	r13, r24
    14fa:	c9 2e       	mov	r12, r25
    14fc:	ce 01       	movw	r24, r28
    14fe:	49 96       	adiw	r24, 0x19	; 25
    1500:	0e 94 a4 08 	call	0x1148	; 0x1148 <ds18b20read_temp>
    1504:	91 e0       	ldi	r25, 0x01	; 1
    1506:	81 30       	cpi	r24, 0x01	; 1
    1508:	09 f0       	breq	.+2      	; 0x150c <main+0x19e>
    150a:	90 e0       	ldi	r25, 0x00	; 0
    150c:	21 e0       	ldi	r18, 0x01	; 1
    150e:	11 30       	cpi	r17, 0x01	; 1
    1510:	09 f0       	breq	.+2      	; 0x1514 <main+0x1a6>
    1512:	20 e0       	ldi	r18, 0x00	; 0
    1514:	29 23       	and	r18, r25
    1516:	09 f4       	brne	.+2      	; 0x151a <main+0x1ac>
    1518:	62 c0       	rjmp	.+196    	; 0x15de <main+0x270>
    151a:	01 30       	cpi	r16, 0x01	; 1
    151c:	09 f0       	breq	.+2      	; 0x1520 <main+0x1b2>
    151e:	5f c0       	rjmp	.+190    	; 0x15de <main+0x270>
    1520:	69 8d       	ldd	r22, Y+25	; 0x19
    1522:	7a 8d       	ldd	r23, Y+26	; 0x1a
    1524:	07 2e       	mov	r0, r23
    1526:	00 0c       	add	r0, r0
    1528:	88 0b       	sbc	r24, r24
    152a:	99 0b       	sbc	r25, r25
    152c:	0e 94 f4 12 	call	0x25e8	; 0x25e8 <__floatsisf>
    1530:	20 e0       	ldi	r18, 0x00	; 0
    1532:	30 e0       	ldi	r19, 0x00	; 0
    1534:	40 e8       	ldi	r20, 0x80	; 128
    1536:	5d e3       	ldi	r21, 0x3D	; 61
    1538:	0e 94 a4 13 	call	0x2748	; 0x2748 <__mulsf3>
    153c:	9f 93       	push	r25
    153e:	8f 93       	push	r24
    1540:	7f 93       	push	r23
    1542:	6f 93       	push	r22
    1544:	cf 92       	push	r12
    1546:	df 92       	push	r13
    1548:	ef 92       	push	r14
    154a:	ff 92       	push	r15
    154c:	8c 81       	ldd	r24, Y+4	; 0x04
    154e:	8f 93       	push	r24
    1550:	8b 81       	ldd	r24, Y+3	; 0x03
    1552:	8f 93       	push	r24
    1554:	8a 81       	ldd	r24, Y+2	; 0x02
    1556:	8f 93       	push	r24
    1558:	89 81       	ldd	r24, Y+1	; 0x01
    155a:	8f 93       	push	r24
    155c:	88 85       	ldd	r24, Y+8	; 0x08
    155e:	8f 93       	push	r24
    1560:	8f 81       	ldd	r24, Y+7	; 0x07
    1562:	8f 93       	push	r24
    1564:	8e 81       	ldd	r24, Y+6	; 0x06
    1566:	8f 93       	push	r24
    1568:	8d 81       	ldd	r24, Y+5	; 0x05
    156a:	8f 93       	push	r24
    156c:	8c 85       	ldd	r24, Y+12	; 0x0c
    156e:	8f 93       	push	r24
    1570:	8b 85       	ldd	r24, Y+11	; 0x0b
    1572:	8f 93       	push	r24
    1574:	8a 85       	ldd	r24, Y+10	; 0x0a
    1576:	8f 93       	push	r24
    1578:	89 85       	ldd	r24, Y+9	; 0x09
    157a:	8f 93       	push	r24
    157c:	2b 8d       	ldd	r18, Y+27	; 0x1b
    157e:	3c 8d       	ldd	r19, Y+28	; 0x1c
    1580:	4d 8d       	ldd	r20, Y+29	; 0x1d
    1582:	5e 8d       	ldd	r21, Y+30	; 0x1e
    1584:	6d 85       	ldd	r22, Y+13	; 0x0d
    1586:	7e 85       	ldd	r23, Y+14	; 0x0e
    1588:	8f 85       	ldd	r24, Y+15	; 0x0f
    158a:	98 89       	ldd	r25, Y+16	; 0x10
    158c:	0e 94 0e 12 	call	0x241c	; 0x241c <__subsf3>
    1590:	9f 93       	push	r25
    1592:	8f 93       	push	r24
    1594:	7f 93       	push	r23
    1596:	6f 93       	push	r22
    1598:	8c 89       	ldd	r24, Y+20	; 0x14
    159a:	8f 93       	push	r24
    159c:	8b 89       	ldd	r24, Y+19	; 0x13
    159e:	8f 93       	push	r24
    15a0:	8a 89       	ldd	r24, Y+18	; 0x12
    15a2:	8f 93       	push	r24
    15a4:	89 89       	ldd	r24, Y+17	; 0x11
    15a6:	8f 93       	push	r24
    15a8:	88 8d       	ldd	r24, Y+24	; 0x18
    15aa:	8f 93       	push	r24
    15ac:	8f 89       	ldd	r24, Y+23	; 0x17
    15ae:	8f 93       	push	r24
    15b0:	8e 89       	ldd	r24, Y+22	; 0x16
    15b2:	8f 93       	push	r24
    15b4:	8d 89       	ldd	r24, Y+21	; 0x15
    15b6:	8f 93       	push	r24
    15b8:	3f 92       	push	r3
    15ba:	2f 92       	push	r2
    15bc:	0e 94 09 17 	call	0x2e12	; 0x2e12 <printf>
    15c0:	2f e7       	ldi	r18, 0x7F	; 127
    15c2:	8a e1       	ldi	r24, 0x1A	; 26
    15c4:	96 e0       	ldi	r25, 0x06	; 6
    15c6:	21 50       	subi	r18, 0x01	; 1
    15c8:	80 40       	sbci	r24, 0x00	; 0
    15ca:	90 40       	sbci	r25, 0x00	; 0
    15cc:	e1 f7       	brne	.-8      	; 0x15c6 <main+0x258>
    15ce:	00 c0       	rjmp	.+0      	; 0x15d0 <main+0x262>
    15d0:	00 00       	nop
    15d2:	0f b6       	in	r0, 0x3f	; 63
    15d4:	f8 94       	cli
    15d6:	de bf       	out	0x3e, r29	; 62
    15d8:	0f be       	out	0x3f, r0	; 63
    15da:	cd bf       	out	0x3d, r28	; 61
    15dc:	47 cf       	rjmp	.-370    	; 0x146c <main+0xfe>
    15de:	83 ec       	ldi	r24, 0xC3	; 195
    15e0:	91 e0       	ldi	r25, 0x01	; 1
    15e2:	0e 94 1d 17 	call	0x2e3a	; 0x2e3a <puts>
    15e6:	80 e0       	ldi	r24, 0x00	; 0
    15e8:	90 e0       	ldi	r25, 0x00	; 0
    15ea:	6e 96       	adiw	r28, 0x1e	; 30
    15ec:	0f b6       	in	r0, 0x3f	; 63
    15ee:	f8 94       	cli
    15f0:	de bf       	out	0x3e, r29	; 62
    15f2:	0f be       	out	0x3f, r0	; 63
    15f4:	cd bf       	out	0x3d, r28	; 61
    15f6:	df 91       	pop	r29
    15f8:	cf 91       	pop	r28
    15fa:	1f 91       	pop	r17
    15fc:	0f 91       	pop	r16
    15fe:	ff 90       	pop	r15
    1600:	ef 90       	pop	r14
    1602:	df 90       	pop	r13
    1604:	cf 90       	pop	r12
    1606:	bf 90       	pop	r11
    1608:	af 90       	pop	r10
    160a:	9f 90       	pop	r9
    160c:	8f 90       	pop	r8
    160e:	7f 90       	pop	r7
    1610:	6f 90       	pop	r6
    1612:	5f 90       	pop	r5
    1614:	4f 90       	pop	r4
    1616:	3f 90       	pop	r3
    1618:	2f 90       	pop	r2
    161a:	08 95       	ret

0000161c <onewireInit>:
    161c:	cf 93       	push	r28
    161e:	df 93       	push	r29
    1620:	dc 01       	movw	r26, r24
    1622:	fb 01       	movw	r30, r22
    1624:	6f b7       	in	r22, 0x3f	; 63
    1626:	8c 91       	ld	r24, X
    1628:	82 2b       	or	r24, r18
    162a:	8c 93       	st	X, r24
    162c:	80 81       	ld	r24, Z
    162e:	82 2b       	or	r24, r18
    1630:	80 83       	st	Z, r24
    1632:	9c 91       	ld	r25, X
    1634:	32 2f       	mov	r19, r18
    1636:	30 95       	com	r19
    1638:	93 23       	and	r25, r19
    163a:	9c 93       	st	X, r25
    163c:	8f ea       	ldi	r24, 0xAF	; 175
    163e:	94 e0       	ldi	r25, 0x04	; 4
    1640:	01 97       	sbiw	r24, 0x01	; 1
    1642:	f1 f7       	brne	.-4      	; 0x1640 <onewireInit+0x24>
    1644:	00 c0       	rjmp	.+0      	; 0x1646 <onewireInit+0x2a>
    1646:	00 00       	nop
    1648:	80 81       	ld	r24, Z
    164a:	83 23       	and	r24, r19
    164c:	80 83       	st	Z, r24
    164e:	9a eb       	ldi	r25, 0xBA	; 186
    1650:	9a 95       	dec	r25
    1652:	f1 f7       	brne	.-4      	; 0x1650 <onewireInit+0x34>
    1654:	00 c0       	rjmp	.+0      	; 0x1656 <onewireInit+0x3a>
    1656:	ea 01       	movw	r28, r20
    1658:	88 81       	ld	r24, Y
    165a:	cf e8       	ldi	r28, 0x8F	; 143
    165c:	d1 e0       	ldi	r29, 0x01	; 1
    165e:	21 97       	sbiw	r28, 0x01	; 1
    1660:	f1 f7       	brne	.-4      	; 0x165e <onewireInit+0x42>
    1662:	00 c0       	rjmp	.+0      	; 0x1664 <onewireInit+0x48>
    1664:	00 00       	nop
    1666:	9c 91       	ld	r25, X
    1668:	92 2b       	or	r25, r18
    166a:	9c 93       	st	X, r25
    166c:	90 81       	ld	r25, Z
    166e:	92 2b       	or	r25, r18
    1670:	90 83       	st	Z, r25
    1672:	ef ea       	ldi	r30, 0xAF	; 175
    1674:	f4 e0       	ldi	r31, 0x04	; 4
    1676:	31 97       	sbiw	r30, 0x01	; 1
    1678:	f1 f7       	brne	.-4      	; 0x1676 <onewireInit+0x5a>
    167a:	00 c0       	rjmp	.+0      	; 0x167c <onewireInit+0x60>
    167c:	00 00       	nop
    167e:	6f bf       	out	0x3f, r22	; 63
    1680:	28 23       	and	r18, r24
    1682:	81 e0       	ldi	r24, 0x01	; 1
    1684:	09 f4       	brne	.+2      	; 0x1688 <onewireInit+0x6c>
    1686:	80 e0       	ldi	r24, 0x00	; 0
    1688:	df 91       	pop	r29
    168a:	cf 91       	pop	r28
    168c:	08 95       	ret

0000168e <onewireWriteBit>:
    168e:	0f 93       	push	r16
    1690:	fc 01       	movw	r30, r24
    1692:	9f b7       	in	r25, 0x3f	; 63
    1694:	80 81       	ld	r24, Z
    1696:	82 2b       	or	r24, r18
    1698:	80 83       	st	Z, r24
    169a:	db 01       	movw	r26, r22
    169c:	8c 91       	ld	r24, X
    169e:	82 2b       	or	r24, r18
    16a0:	8c 93       	st	X, r24
    16a2:	30 81       	ld	r19, Z
    16a4:	82 2f       	mov	r24, r18
    16a6:	80 95       	com	r24
    16a8:	83 23       	and	r24, r19
    16aa:	80 83       	st	Z, r24
    16ac:	00 23       	and	r16, r16
    16ae:	21 f0       	breq	.+8      	; 0x16b8 <onewireWriteBit+0x2a>
    16b0:	b5 e1       	ldi	r27, 0x15	; 21
    16b2:	ba 95       	dec	r27
    16b4:	f1 f7       	brne	.-4      	; 0x16b2 <onewireWriteBit+0x24>
    16b6:	03 c0       	rjmp	.+6      	; 0x16be <onewireWriteBit+0x30>
    16b8:	85 ed       	ldi	r24, 0xD5	; 213
    16ba:	8a 95       	dec	r24
    16bc:	f1 f7       	brne	.-4      	; 0x16ba <onewireWriteBit+0x2c>
    16be:	00 00       	nop
    16c0:	80 81       	ld	r24, Z
    16c2:	28 2b       	or	r18, r24
    16c4:	20 83       	st	Z, r18
    16c6:	00 23       	and	r16, r16
    16c8:	21 f0       	breq	.+8      	; 0x16d2 <onewireWriteBit+0x44>
    16ca:	a5 ed       	ldi	r26, 0xD5	; 213
    16cc:	aa 95       	dec	r26
    16ce:	f1 f7       	brne	.-4      	; 0x16cc <onewireWriteBit+0x3e>
    16d0:	03 c0       	rjmp	.+6      	; 0x16d8 <onewireWriteBit+0x4a>
    16d2:	b5 e0       	ldi	r27, 0x05	; 5
    16d4:	ba 95       	dec	r27
    16d6:	f1 f7       	brne	.-4      	; 0x16d4 <onewireWriteBit+0x46>
    16d8:	00 00       	nop
    16da:	9f bf       	out	0x3f, r25	; 63
    16dc:	81 e0       	ldi	r24, 0x01	; 1
    16de:	01 11       	cpse	r16, r1
    16e0:	01 c0       	rjmp	.+2      	; 0x16e4 <onewireWriteBit+0x56>
    16e2:	80 e0       	ldi	r24, 0x00	; 0
    16e4:	0f 91       	pop	r16
    16e6:	08 95       	ret

000016e8 <onewireWrite>:
    16e8:	7f 92       	push	r7
    16ea:	8f 92       	push	r8
    16ec:	9f 92       	push	r9
    16ee:	af 92       	push	r10
    16f0:	bf 92       	push	r11
    16f2:	cf 92       	push	r12
    16f4:	df 92       	push	r13
    16f6:	ef 92       	push	r14
    16f8:	ff 92       	push	r15
    16fa:	0f 93       	push	r16
    16fc:	1f 93       	push	r17
    16fe:	cf 93       	push	r28
    1700:	df 93       	push	r29
    1702:	6c 01       	movw	r12, r24
    1704:	5b 01       	movw	r10, r22
    1706:	4a 01       	movw	r8, r20
    1708:	e2 2e       	mov	r14, r18
    170a:	70 2e       	mov	r7, r16
    170c:	ff b6       	in	r15, 0x3f	; 63
    170e:	c8 e0       	ldi	r28, 0x08	; 8
    1710:	d0 e0       	ldi	r29, 0x00	; 0
    1712:	11 e0       	ldi	r17, 0x01	; 1
    1714:	01 2f       	mov	r16, r17
    1716:	07 21       	and	r16, r7
    1718:	2e 2d       	mov	r18, r14
    171a:	a4 01       	movw	r20, r8
    171c:	b5 01       	movw	r22, r10
    171e:	c6 01       	movw	r24, r12
    1720:	0e 94 47 0b 	call	0x168e	; 0x168e <onewireWriteBit>
    1724:	11 0f       	add	r17, r17
    1726:	21 97       	sbiw	r28, 0x01	; 1
    1728:	a9 f7       	brne	.-22     	; 0x1714 <onewireWrite+0x2c>
    172a:	ff be       	out	0x3f, r15	; 63
    172c:	df 91       	pop	r29
    172e:	cf 91       	pop	r28
    1730:	1f 91       	pop	r17
    1732:	0f 91       	pop	r16
    1734:	ff 90       	pop	r15
    1736:	ef 90       	pop	r14
    1738:	df 90       	pop	r13
    173a:	cf 90       	pop	r12
    173c:	bf 90       	pop	r11
    173e:	af 90       	pop	r10
    1740:	9f 90       	pop	r9
    1742:	8f 90       	pop	r8
    1744:	7f 90       	pop	r7
    1746:	08 95       	ret

00001748 <onewireReadBit>:
    1748:	dc 01       	movw	r26, r24
    174a:	fb 01       	movw	r30, r22
    174c:	6f b7       	in	r22, 0x3f	; 63
    174e:	8c 91       	ld	r24, X
    1750:	82 2b       	or	r24, r18
    1752:	8c 93       	st	X, r24
    1754:	80 81       	ld	r24, Z
    1756:	82 2b       	or	r24, r18
    1758:	80 83       	st	Z, r24
    175a:	9c 91       	ld	r25, X
    175c:	32 2f       	mov	r19, r18
    175e:	30 95       	com	r19
    1760:	93 23       	and	r25, r19
    1762:	9c 93       	st	X, r25
    1764:	85 e0       	ldi	r24, 0x05	; 5
    1766:	8a 95       	dec	r24
    1768:	f1 f7       	brne	.-4      	; 0x1766 <onewireReadBit+0x1e>
    176a:	00 00       	nop
    176c:	80 81       	ld	r24, Z
    176e:	83 23       	and	r24, r19
    1770:	80 83       	st	Z, r24
    1772:	9d e0       	ldi	r25, 0x0D	; 13
    1774:	9a 95       	dec	r25
    1776:	f1 f7       	brne	.-4      	; 0x1774 <onewireReadBit+0x2c>
    1778:	00 00       	nop
    177a:	fa 01       	movw	r30, r20
    177c:	80 81       	ld	r24, Z
    177e:	f0 ea       	ldi	r31, 0xA0	; 160
    1780:	fa 95       	dec	r31
    1782:	f1 f7       	brne	.-4      	; 0x1780 <onewireReadBit+0x38>
    1784:	6f bf       	out	0x3f, r22	; 63
    1786:	28 23       	and	r18, r24
    1788:	81 e0       	ldi	r24, 0x01	; 1
    178a:	09 f4       	brne	.+2      	; 0x178e <onewireReadBit+0x46>
    178c:	80 e0       	ldi	r24, 0x00	; 0
    178e:	08 95       	ret

00001790 <onewireRead>:
    1790:	8f 92       	push	r8
    1792:	9f 92       	push	r9
    1794:	af 92       	push	r10
    1796:	bf 92       	push	r11
    1798:	cf 92       	push	r12
    179a:	df 92       	push	r13
    179c:	ef 92       	push	r14
    179e:	ff 92       	push	r15
    17a0:	0f 93       	push	r16
    17a2:	1f 93       	push	r17
    17a4:	cf 93       	push	r28
    17a6:	df 93       	push	r29
    17a8:	6c 01       	movw	r12, r24
    17aa:	5b 01       	movw	r10, r22
    17ac:	4a 01       	movw	r8, r20
    17ae:	e2 2e       	mov	r14, r18
    17b0:	ff b6       	in	r15, 0x3f	; 63
    17b2:	08 e0       	ldi	r16, 0x08	; 8
    17b4:	10 e0       	ldi	r17, 0x00	; 0
    17b6:	d1 e0       	ldi	r29, 0x01	; 1
    17b8:	c0 e0       	ldi	r28, 0x00	; 0
    17ba:	2e 2d       	mov	r18, r14
    17bc:	a4 01       	movw	r20, r8
    17be:	b5 01       	movw	r22, r10
    17c0:	c6 01       	movw	r24, r12
    17c2:	0e 94 a4 0b 	call	0x1748	; 0x1748 <onewireReadBit>
    17c6:	8d 9f       	mul	r24, r29
    17c8:	c0 01       	movw	r24, r0
    17ca:	11 24       	eor	r1, r1
    17cc:	c8 2b       	or	r28, r24
    17ce:	dd 0f       	add	r29, r29
    17d0:	01 50       	subi	r16, 0x01	; 1
    17d2:	11 09       	sbc	r17, r1
    17d4:	91 f7       	brne	.-28     	; 0x17ba <onewireRead+0x2a>
    17d6:	ff be       	out	0x3f, r15	; 63
    17d8:	8c 2f       	mov	r24, r28
    17da:	df 91       	pop	r29
    17dc:	cf 91       	pop	r28
    17de:	1f 91       	pop	r17
    17e0:	0f 91       	pop	r16
    17e2:	ff 90       	pop	r15
    17e4:	ef 90       	pop	r14
    17e6:	df 90       	pop	r13
    17e8:	cf 90       	pop	r12
    17ea:	bf 90       	pop	r11
    17ec:	af 90       	pop	r10
    17ee:	9f 90       	pop	r9
    17f0:	8f 90       	pop	r8
    17f2:	08 95       	ret

000017f4 <ds18b20search>:
    17f4:	2f 92       	push	r2
    17f6:	3f 92       	push	r3
    17f8:	4f 92       	push	r4
    17fa:	5f 92       	push	r5
    17fc:	6f 92       	push	r6
    17fe:	7f 92       	push	r7
    1800:	8f 92       	push	r8
    1802:	9f 92       	push	r9
    1804:	af 92       	push	r10
    1806:	bf 92       	push	r11
    1808:	cf 92       	push	r12
    180a:	df 92       	push	r13
    180c:	ef 92       	push	r14
    180e:	ff 92       	push	r15
    1810:	0f 93       	push	r16
    1812:	1f 93       	push	r17
    1814:	cf 93       	push	r28
    1816:	df 93       	push	r29
    1818:	cd b7       	in	r28, 0x3d	; 61
    181a:	de b7       	in	r29, 0x3e	; 62
    181c:	a3 97       	sbiw	r28, 0x23	; 35
    181e:	0f b6       	in	r0, 0x3f	; 63
    1820:	f8 94       	cli
    1822:	de bf       	out	0x3e, r29	; 62
    1824:	0f be       	out	0x3f, r0	; 63
    1826:	cd bf       	out	0x3d, r28	; 61
    1828:	3f b7       	in	r19, 0x3f	; 63
    182a:	3f 87       	std	Y+15, r19	; 0x0f
    182c:	01 15       	cp	r16, r1
    182e:	11 05       	cpc	r17, r1
    1830:	09 f4       	brne	.+2      	; 0x1834 <ds18b20search+0x40>
    1832:	64 c1       	rjmp	.+712    	; 0x1afc <ds18b20search+0x308>
    1834:	df 8e       	std	Y+31, r13	; 0x1f
    1836:	ce 8e       	std	Y+30, r12	; 0x1e
    1838:	fd 8e       	std	Y+29, r15	; 0x1d
    183a:	ec 8e       	std	Y+28, r14	; 0x1c
    183c:	1b 8f       	std	Y+27, r17	; 0x1b
    183e:	0a 8f       	std	Y+26, r16	; 0x1a
    1840:	2e 87       	std	Y+14, r18	; 0x0e
    1842:	5d 87       	std	Y+13, r21	; 0x0d
    1844:	4c 87       	std	Y+12, r20	; 0x0c
    1846:	7b 87       	std	Y+11, r23	; 0x0b
    1848:	6a 87       	std	Y+10, r22	; 0x0a
    184a:	99 87       	std	Y+9, r25	; 0x09
    184c:	88 87       	std	Y+8, r24	; 0x08
    184e:	10 e0       	ldi	r17, 0x00	; 0
    1850:	f1 2c       	mov	r15, r1
    1852:	91 2c       	mov	r9, r1
    1854:	81 2c       	mov	r8, r1
    1856:	71 2c       	mov	r7, r1
    1858:	61 2c       	mov	r6, r1
    185a:	31 2c       	mov	r3, r1
    185c:	21 2c       	mov	r2, r1
    185e:	1b 82       	std	Y+3, r1	; 0x03
    1860:	2e 85       	ldd	r18, Y+14	; 0x0e
    1862:	4c 85       	ldd	r20, Y+12	; 0x0c
    1864:	5d 85       	ldd	r21, Y+13	; 0x0d
    1866:	6a 85       	ldd	r22, Y+10	; 0x0a
    1868:	7b 85       	ldd	r23, Y+11	; 0x0b
    186a:	88 85       	ldd	r24, Y+8	; 0x08
    186c:	99 85       	ldd	r25, Y+9	; 0x09
    186e:	0e 94 0e 0b 	call	0x161c	; 0x161c <onewireInit>
    1872:	81 30       	cpi	r24, 0x01	; 1
    1874:	31 f4       	brne	.+12     	; 0x1882 <ds18b20search+0x8e>
    1876:	aa 8d       	ldd	r26, Y+26	; 0x1a
    1878:	bb 8d       	ldd	r27, Y+27	; 0x1b
    187a:	1c 92       	st	X, r1
    187c:	bf 85       	ldd	r27, Y+15	; 0x0f
    187e:	bf bf       	out	0x3f, r27	; 63
    1880:	3e c1       	rjmp	.+636    	; 0x1afe <ds18b20search+0x30a>
    1882:	00 ef       	ldi	r16, 0xF0	; 240
    1884:	2e 85       	ldd	r18, Y+14	; 0x0e
    1886:	4c 85       	ldd	r20, Y+12	; 0x0c
    1888:	5d 85       	ldd	r21, Y+13	; 0x0d
    188a:	6a 85       	ldd	r22, Y+10	; 0x0a
    188c:	7b 85       	ldd	r23, Y+11	; 0x0b
    188e:	88 85       	ldd	r24, Y+8	; 0x08
    1890:	99 85       	ldd	r25, Y+9	; 0x09
    1892:	0e 94 74 0b 	call	0x16e8	; 0x16e8 <onewireWrite>
    1896:	1c 83       	std	Y+4, r17	; 0x04
    1898:	fd 82       	std	Y+5, r15	; 0x05
    189a:	9e 82       	std	Y+6, r9	; 0x06
    189c:	8f 82       	std	Y+7, r8	; 0x07
    189e:	47 2c       	mov	r4, r7
    18a0:	56 2c       	mov	r5, r6
    18a2:	39 82       	std	Y+1, r3	; 0x01
    18a4:	2a 82       	std	Y+2, r2	; 0x02
    18a6:	e0 e4       	ldi	r30, 0x40	; 64
    18a8:	f0 e0       	ldi	r31, 0x00	; 0
    18aa:	f9 8b       	std	Y+17, r31	; 0x11
    18ac:	e8 8b       	std	Y+16, r30	; 0x10
    18ae:	1a 8a       	std	Y+18, r1	; 0x12
    18b0:	1b 8a       	std	Y+19, r1	; 0x13
    18b2:	1c 8a       	std	Y+20, r1	; 0x14
    18b4:	1d 8a       	std	Y+21, r1	; 0x15
    18b6:	1e 8a       	std	Y+22, r1	; 0x16
    18b8:	1f 8a       	std	Y+23, r1	; 0x17
    18ba:	18 8e       	std	Y+24, r1	; 0x18
    18bc:	19 8e       	std	Y+25, r1	; 0x19
    18be:	66 24       	eor	r6, r6
    18c0:	63 94       	inc	r6
    18c2:	71 2c       	mov	r7, r1
    18c4:	81 2c       	mov	r8, r1
    18c6:	91 2c       	mov	r9, r1
    18c8:	1b a2       	std	Y+35, r1	; 0x23
    18ca:	18 a2       	std	Y+32, r1	; 0x20
    18cc:	21 2c       	mov	r2, r1
    18ce:	31 2c       	mov	r3, r1
    18d0:	2e 85       	ldd	r18, Y+14	; 0x0e
    18d2:	4c 85       	ldd	r20, Y+12	; 0x0c
    18d4:	5d 85       	ldd	r21, Y+13	; 0x0d
    18d6:	6a 85       	ldd	r22, Y+10	; 0x0a
    18d8:	7b 85       	ldd	r23, Y+11	; 0x0b
    18da:	88 85       	ldd	r24, Y+8	; 0x08
    18dc:	99 85       	ldd	r25, Y+9	; 0x09
    18de:	0e 94 a4 0b 	call	0x1748	; 0x1748 <onewireReadBit>
    18e2:	18 2f       	mov	r17, r24
    18e4:	2e 85       	ldd	r18, Y+14	; 0x0e
    18e6:	4c 85       	ldd	r20, Y+12	; 0x0c
    18e8:	5d 85       	ldd	r21, Y+13	; 0x0d
    18ea:	6a 85       	ldd	r22, Y+10	; 0x0a
    18ec:	7b 85       	ldd	r23, Y+11	; 0x0b
    18ee:	88 85       	ldd	r24, Y+8	; 0x08
    18f0:	99 85       	ldd	r25, Y+9	; 0x09
    18f2:	0e 94 a4 0b 	call	0x1748	; 0x1748 <onewireReadBit>
    18f6:	88 0f       	add	r24, r24
    18f8:	18 2b       	or	r17, r24
    18fa:	13 30       	cpi	r17, 0x03	; 3
    18fc:	20 f4       	brcc	.+8      	; 0x1906 <ds18b20search+0x112>
    18fe:	11 30       	cpi	r17, 0x01	; 1
    1900:	60 f0       	brcs	.+24     	; 0x191a <ds18b20search+0x126>
    1902:	11 70       	andi	r17, 0x01	; 1
    1904:	61 c0       	rjmp	.+194    	; 0x19c8 <ds18b20search+0x1d4>
    1906:	13 30       	cpi	r17, 0x03	; 3
    1908:	09 f0       	breq	.+2      	; 0x190c <ds18b20search+0x118>
    190a:	5e c0       	rjmp	.+188    	; 0x19c8 <ds18b20search+0x1d4>
    190c:	aa 8d       	ldd	r26, Y+26	; 0x1a
    190e:	bb 8d       	ldd	r27, Y+27	; 0x1b
    1910:	1c 92       	st	X, r1
    1912:	bf 85       	ldd	r27, Y+15	; 0x0f
    1914:	bf bf       	out	0x3f, r27	; 63
    1916:	81 e0       	ldi	r24, 0x01	; 1
    1918:	f2 c0       	rjmp	.+484    	; 0x1afe <ds18b20search+0x30a>
    191a:	93 01       	movw	r18, r6
    191c:	a4 01       	movw	r20, r8
    191e:	6b a1       	ldd	r22, Y+35	; 0x23
    1920:	78 a1       	ldd	r23, Y+32	; 0x20
    1922:	c1 01       	movw	r24, r2
    1924:	01 e0       	ldi	r16, 0x01	; 1
    1926:	0e 94 d1 11 	call	0x23a2	; 0x23a2 <__ashldi3>
    192a:	59 01       	movw	r10, r18
    192c:	6a 01       	movw	r12, r20
    192e:	7b 01       	movw	r14, r22
    1930:	8c 01       	movw	r16, r24
    1932:	2c 81       	ldd	r18, Y+4	; 0x04
    1934:	3d 81       	ldd	r19, Y+5	; 0x05
    1936:	4e 81       	ldd	r20, Y+6	; 0x06
    1938:	5f 81       	ldd	r21, Y+7	; 0x07
    193a:	b2 01       	movw	r22, r4
    193c:	89 81       	ldd	r24, Y+1	; 0x01
    193e:	9a 81       	ldd	r25, Y+2	; 0x02
    1940:	b2 2f       	mov	r27, r18
    1942:	b6 21       	and	r27, r6
    1944:	a3 2f       	mov	r26, r19
    1946:	a7 21       	and	r26, r7
    1948:	e4 2f       	mov	r30, r20
    194a:	e8 21       	and	r30, r8
    194c:	e9 a3       	std	Y+33, r30	; 0x21
    194e:	f5 2f       	mov	r31, r21
    1950:	f9 21       	and	r31, r9
    1952:	0e 94 ea 11 	call	0x23d4	; 0x23d4 <__cmpdi2>
    1956:	80 f0       	brcs	.+32     	; 0x1978 <ds18b20search+0x184>
    1958:	11 e0       	ldi	r17, 0x01	; 1
    195a:	2b 2f       	mov	r18, r27
    195c:	3a 2f       	mov	r19, r26
    195e:	af 01       	movw	r20, r30
    1960:	6b a1       	ldd	r22, Y+35	; 0x23
    1962:	64 21       	and	r22, r4
    1964:	78 a1       	ldd	r23, Y+32	; 0x20
    1966:	75 21       	and	r23, r5
    1968:	82 21       	and	r24, r2
    196a:	93 21       	and	r25, r3
    196c:	a0 e0       	ldi	r26, 0x00	; 0
    196e:	0e 94 f3 11 	call	0x23e6	; 0x23e6 <__cmpdi2_s8>
    1972:	51 f1       	breq	.+84     	; 0x19c8 <ds18b20search+0x1d4>
    1974:	10 e0       	ldi	r17, 0x00	; 0
    1976:	28 c0       	rjmp	.+80     	; 0x19c8 <ds18b20search+0x1d4>
    1978:	11 e0       	ldi	r17, 0x01	; 1
    197a:	2b 2f       	mov	r18, r27
    197c:	3a 2f       	mov	r19, r26
    197e:	49 a1       	ldd	r20, Y+33	; 0x21
    1980:	5f 2f       	mov	r21, r31
    1982:	6b a1       	ldd	r22, Y+35	; 0x23
    1984:	64 21       	and	r22, r4
    1986:	78 a1       	ldd	r23, Y+32	; 0x20
    1988:	75 21       	and	r23, r5
    198a:	89 81       	ldd	r24, Y+1	; 0x01
    198c:	82 21       	and	r24, r2
    198e:	9a 81       	ldd	r25, Y+2	; 0x02
    1990:	93 21       	and	r25, r3
    1992:	a0 e0       	ldi	r26, 0x00	; 0
    1994:	0e 94 f3 11 	call	0x23e6	; 0x23e6 <__cmpdi2_s8>
    1998:	09 f4       	brne	.+2      	; 0x199c <ds18b20search+0x1a8>
    199a:	10 e0       	ldi	r17, 0x00	; 0
    199c:	fc 81       	ldd	r31, Y+4	; 0x04
    199e:	f6 25       	eor	r31, r6
    19a0:	fc 83       	std	Y+4, r31	; 0x04
    19a2:	2d 81       	ldd	r18, Y+5	; 0x05
    19a4:	27 25       	eor	r18, r7
    19a6:	2d 83       	std	Y+5, r18	; 0x05
    19a8:	3e 81       	ldd	r19, Y+6	; 0x06
    19aa:	38 25       	eor	r19, r8
    19ac:	3e 83       	std	Y+6, r19	; 0x06
    19ae:	4f 81       	ldd	r20, Y+7	; 0x07
    19b0:	49 25       	eor	r20, r9
    19b2:	4f 83       	std	Y+7, r20	; 0x07
    19b4:	5b a1       	ldd	r21, Y+35	; 0x23
    19b6:	45 26       	eor	r4, r21
    19b8:	68 a1       	ldd	r22, Y+32	; 0x20
    19ba:	56 26       	eor	r5, r22
    19bc:	79 81       	ldd	r23, Y+1	; 0x01
    19be:	72 25       	eor	r23, r2
    19c0:	79 83       	std	Y+1, r23	; 0x01
    19c2:	8a 81       	ldd	r24, Y+2	; 0x02
    19c4:	83 25       	eor	r24, r3
    19c6:	8a 83       	std	Y+2, r24	; 0x02
    19c8:	01 2f       	mov	r16, r17
    19ca:	2e 85       	ldd	r18, Y+14	; 0x0e
    19cc:	4c 85       	ldd	r20, Y+12	; 0x0c
    19ce:	5d 85       	ldd	r21, Y+13	; 0x0d
    19d0:	6a 85       	ldd	r22, Y+10	; 0x0a
    19d2:	7b 85       	ldd	r23, Y+11	; 0x0b
    19d4:	88 85       	ldd	r24, Y+8	; 0x08
    19d6:	99 85       	ldd	r25, Y+9	; 0x09
    19d8:	0e 94 47 0b 	call	0x168e	; 0x168e <onewireWriteBit>
    19dc:	11 23       	and	r17, r17
    19de:	49 f0       	breq	.+18     	; 0x19f2 <ds18b20search+0x1fe>
    19e0:	76 2d       	mov	r23, r6
    19e2:	67 2d       	mov	r22, r7
    19e4:	58 2d       	mov	r21, r8
    19e6:	49 2d       	mov	r20, r9
    19e8:	3b a1       	ldd	r19, Y+35	; 0x23
    19ea:	28 a1       	ldd	r18, Y+32	; 0x20
    19ec:	92 2d       	mov	r25, r2
    19ee:	83 2d       	mov	r24, r3
    19f0:	08 c0       	rjmp	.+16     	; 0x1a02 <ds18b20search+0x20e>
    19f2:	70 e0       	ldi	r23, 0x00	; 0
    19f4:	60 e0       	ldi	r22, 0x00	; 0
    19f6:	50 e0       	ldi	r21, 0x00	; 0
    19f8:	40 e0       	ldi	r20, 0x00	; 0
    19fa:	30 e0       	ldi	r19, 0x00	; 0
    19fc:	20 e0       	ldi	r18, 0x00	; 0
    19fe:	90 e0       	ldi	r25, 0x00	; 0
    1a00:	80 e0       	ldi	r24, 0x00	; 0
    1a02:	aa 89       	ldd	r26, Y+18	; 0x12
    1a04:	a7 2b       	or	r26, r23
    1a06:	aa 8b       	std	Y+18, r26	; 0x12
    1a08:	bb 89       	ldd	r27, Y+19	; 0x13
    1a0a:	b6 2b       	or	r27, r22
    1a0c:	bb 8b       	std	Y+19, r27	; 0x13
    1a0e:	ec 89       	ldd	r30, Y+20	; 0x14
    1a10:	e5 2b       	or	r30, r21
    1a12:	ec 8b       	std	Y+20, r30	; 0x14
    1a14:	fd 89       	ldd	r31, Y+21	; 0x15
    1a16:	f4 2b       	or	r31, r20
    1a18:	fd 8b       	std	Y+21, r31	; 0x15
    1a1a:	4e 89       	ldd	r20, Y+22	; 0x16
    1a1c:	43 2b       	or	r20, r19
    1a1e:	4e 8b       	std	Y+22, r20	; 0x16
    1a20:	5f 89       	ldd	r21, Y+23	; 0x17
    1a22:	52 2b       	or	r21, r18
    1a24:	5f 8b       	std	Y+23, r21	; 0x17
    1a26:	68 8d       	ldd	r22, Y+24	; 0x18
    1a28:	69 2b       	or	r22, r25
    1a2a:	68 8f       	std	Y+24, r22	; 0x18
    1a2c:	79 8d       	ldd	r23, Y+25	; 0x19
    1a2e:	78 2b       	or	r23, r24
    1a30:	79 8f       	std	Y+25, r23	; 0x19
    1a32:	93 01       	movw	r18, r6
    1a34:	a4 01       	movw	r20, r8
    1a36:	6b a1       	ldd	r22, Y+35	; 0x23
    1a38:	78 a1       	ldd	r23, Y+32	; 0x20
    1a3a:	c1 01       	movw	r24, r2
    1a3c:	01 e0       	ldi	r16, 0x01	; 1
    1a3e:	0e 94 d1 11 	call	0x23a2	; 0x23a2 <__ashldi3>
    1a42:	39 01       	movw	r6, r18
    1a44:	4a 01       	movw	r8, r20
    1a46:	6b a3       	std	Y+35, r22	; 0x23
    1a48:	78 a3       	std	Y+32, r23	; 0x20
    1a4a:	1c 01       	movw	r2, r24
    1a4c:	88 89       	ldd	r24, Y+16	; 0x10
    1a4e:	99 89       	ldd	r25, Y+17	; 0x11
    1a50:	01 97       	sbiw	r24, 0x01	; 1
    1a52:	99 8b       	std	Y+17, r25	; 0x11
    1a54:	88 8b       	std	Y+16, r24	; 0x10
    1a56:	89 2b       	or	r24, r25
    1a58:	09 f0       	breq	.+2      	; 0x1a5c <ds18b20search+0x268>
    1a5a:	3a cf       	rjmp	.-396    	; 0x18d0 <ds18b20search+0xdc>
    1a5c:	1c 81       	ldd	r17, Y+4	; 0x04
    1a5e:	fd 80       	ldd	r15, Y+5	; 0x05
    1a60:	9e 80       	ldd	r9, Y+6	; 0x06
    1a62:	8f 80       	ldd	r8, Y+7	; 0x07
    1a64:	74 2c       	mov	r7, r4
    1a66:	65 2c       	mov	r6, r5
    1a68:	39 80       	ldd	r3, Y+1	; 0x01
    1a6a:	2a 80       	ldd	r2, Y+2	; 0x02
    1a6c:	ac 8d       	ldd	r26, Y+28	; 0x1c
    1a6e:	bd 8d       	ldd	r27, Y+29	; 0x1d
    1a70:	ab 2b       	or	r26, r27
    1a72:	41 f1       	breq	.+80     	; 0x1ac4 <ds18b20search+0x2d0>
    1a74:	bb 81       	ldd	r27, Y+3	; 0x03
    1a76:	eb 2f       	mov	r30, r27
    1a78:	f0 e0       	ldi	r31, 0x00	; 0
    1a7a:	cf 01       	movw	r24, r30
    1a7c:	01 96       	adiw	r24, 0x01	; 1
    1a7e:	23 e0       	ldi	r18, 0x03	; 3
    1a80:	88 0f       	add	r24, r24
    1a82:	99 1f       	adc	r25, r25
    1a84:	2a 95       	dec	r18
    1a86:	e1 f7       	brne	.-8      	; 0x1a80 <ds18b20search+0x28c>
    1a88:	2e 8d       	ldd	r18, Y+30	; 0x1e
    1a8a:	3f 8d       	ldd	r19, Y+31	; 0x1f
    1a8c:	28 17       	cp	r18, r24
    1a8e:	39 07       	cpc	r19, r25
    1a90:	c8 f0       	brcs	.+50     	; 0x1ac4 <ds18b20search+0x2d0>
    1a92:	83 e0       	ldi	r24, 0x03	; 3
    1a94:	ee 0f       	add	r30, r30
    1a96:	ff 1f       	adc	r31, r31
    1a98:	8a 95       	dec	r24
    1a9a:	e1 f7       	brne	.-8      	; 0x1a94 <ds18b20search+0x2a0>
    1a9c:	4c 8d       	ldd	r20, Y+28	; 0x1c
    1a9e:	5d 8d       	ldd	r21, Y+29	; 0x1d
    1aa0:	e4 0f       	add	r30, r20
    1aa2:	f5 1f       	adc	r31, r21
    1aa4:	5a 89       	ldd	r21, Y+18	; 0x12
    1aa6:	50 83       	st	Z, r21
    1aa8:	6b 89       	ldd	r22, Y+19	; 0x13
    1aaa:	61 83       	std	Z+1, r22	; 0x01
    1aac:	7c 89       	ldd	r23, Y+20	; 0x14
    1aae:	72 83       	std	Z+2, r23	; 0x02
    1ab0:	8d 89       	ldd	r24, Y+21	; 0x15
    1ab2:	83 83       	std	Z+3, r24	; 0x03
    1ab4:	9e 89       	ldd	r25, Y+22	; 0x16
    1ab6:	94 83       	std	Z+4, r25	; 0x04
    1ab8:	af 89       	ldd	r26, Y+23	; 0x17
    1aba:	a5 83       	std	Z+5, r26	; 0x05
    1abc:	b8 8d       	ldd	r27, Y+24	; 0x18
    1abe:	b6 83       	std	Z+6, r27	; 0x06
    1ac0:	29 8d       	ldd	r18, Y+25	; 0x19
    1ac2:	27 83       	std	Z+7, r18	; 0x07
    1ac4:	3b 81       	ldd	r19, Y+3	; 0x03
    1ac6:	3f 5f       	subi	r19, 0xFF	; 255
    1ac8:	3b 83       	std	Y+3, r19	; 0x03
    1aca:	33 23       	and	r19, r19
    1acc:	61 f0       	breq	.+24     	; 0x1ae6 <ds18b20search+0x2f2>
    1ace:	2c 81       	ldd	r18, Y+4	; 0x04
    1ad0:	3d 81       	ldd	r19, Y+5	; 0x05
    1ad2:	4e 81       	ldd	r20, Y+6	; 0x06
    1ad4:	5f 81       	ldd	r21, Y+7	; 0x07
    1ad6:	b2 01       	movw	r22, r4
    1ad8:	89 81       	ldd	r24, Y+1	; 0x01
    1ada:	9a 81       	ldd	r25, Y+2	; 0x02
    1adc:	a0 e0       	ldi	r26, 0x00	; 0
    1ade:	0e 94 f3 11 	call	0x23e6	; 0x23e6 <__cmpdi2_s8>
    1ae2:	09 f0       	breq	.+2      	; 0x1ae6 <ds18b20search+0x2f2>
    1ae4:	bd ce       	rjmp	.-646    	; 0x1860 <ds18b20search+0x6c>
    1ae6:	eb 81       	ldd	r30, Y+3	; 0x03
    1ae8:	aa 8d       	ldd	r26, Y+26	; 0x1a
    1aea:	bb 8d       	ldd	r27, Y+27	; 0x1b
    1aec:	ec 93       	st	X, r30
    1aee:	ff 85       	ldd	r31, Y+15	; 0x0f
    1af0:	ff bf       	out	0x3f, r31	; 63
    1af2:	81 e0       	ldi	r24, 0x01	; 1
    1af4:	ee 23       	and	r30, r30
    1af6:	19 f0       	breq	.+6      	; 0x1afe <ds18b20search+0x30a>
    1af8:	80 e0       	ldi	r24, 0x00	; 0
    1afa:	01 c0       	rjmp	.+2      	; 0x1afe <ds18b20search+0x30a>
    1afc:	84 e0       	ldi	r24, 0x04	; 4
    1afe:	a3 96       	adiw	r28, 0x23	; 35
    1b00:	0f b6       	in	r0, 0x3f	; 63
    1b02:	f8 94       	cli
    1b04:	de bf       	out	0x3e, r29	; 62
    1b06:	0f be       	out	0x3f, r0	; 63
    1b08:	cd bf       	out	0x3d, r28	; 61
    1b0a:	df 91       	pop	r29
    1b0c:	cf 91       	pop	r28
    1b0e:	1f 91       	pop	r17
    1b10:	0f 91       	pop	r16
    1b12:	ff 90       	pop	r15
    1b14:	ef 90       	pop	r14
    1b16:	df 90       	pop	r13
    1b18:	cf 90       	pop	r12
    1b1a:	bf 90       	pop	r11
    1b1c:	af 90       	pop	r10
    1b1e:	9f 90       	pop	r9
    1b20:	8f 90       	pop	r8
    1b22:	7f 90       	pop	r7
    1b24:	6f 90       	pop	r6
    1b26:	5f 90       	pop	r5
    1b28:	4f 90       	pop	r4
    1b2a:	3f 90       	pop	r3
    1b2c:	2f 90       	pop	r2
    1b2e:	08 95       	ret

00001b30 <USART_Init>:
    1b30:	9c 01       	movw	r18, r24
    1b32:	40 e0       	ldi	r20, 0x00	; 0
    1b34:	50 e0       	ldi	r21, 0x00	; 0
    1b36:	60 e2       	ldi	r22, 0x20	; 32
    1b38:	71 ea       	ldi	r23, 0xA1	; 161
    1b3a:	87 e0       	ldi	r24, 0x07	; 7
    1b3c:	90 e0       	ldi	r25, 0x00	; 0
    1b3e:	0e 94 9c 11 	call	0x2338	; 0x2338 <__udivmodsi4>
    1b42:	21 50       	subi	r18, 0x01	; 1
    1b44:	31 09       	sbc	r19, r1
    1b46:	30 93 90 00 	sts	0x0090, r19	; 0x800090 <__TEXT_REGION_LENGTH__+0x7e0090>
    1b4a:	29 b9       	out	0x09, r18	; 9
    1b4c:	88 e1       	ldi	r24, 0x18	; 24
    1b4e:	8a b9       	out	0x0a, r24	; 10
    1b50:	86 e0       	ldi	r24, 0x06	; 6
    1b52:	80 93 95 00 	sts	0x0095, r24	; 0x800095 <__TEXT_REGION_LENGTH__+0x7e0095>
    1b56:	08 95       	ret

00001b58 <USART_SendByte>:
    1b58:	5d 9b       	sbis	0x0b, 5	; 11
    1b5a:	fe cf       	rjmp	.-4      	; 0x1b58 <USART_SendByte>
    1b5c:	8c b9       	out	0x0c, r24	; 12
    1b5e:	08 95       	ret

00001b60 <USART_Receive>:
    1b60:	5f 9b       	sbis	0x0b, 7	; 11
    1b62:	fe cf       	rjmp	.-4      	; 0x1b60 <USART_Receive>
    1b64:	8c b1       	in	r24, 0x0c	; 12
    1b66:	08 95       	ret

00001b68 <USART_SendByteArray>:
    1b68:	ef 92       	push	r14
    1b6a:	ff 92       	push	r15
    1b6c:	0f 93       	push	r16
    1b6e:	1f 93       	push	r17
    1b70:	cf 93       	push	r28
    1b72:	df 93       	push	r29
    1b74:	7c 01       	movw	r14, r24
    1b76:	8c 01       	movw	r16, r24
    1b78:	c6 2f       	mov	r28, r22
    1b7a:	d0 e0       	ldi	r29, 0x00	; 0
    1b7c:	c8 01       	movw	r24, r16
    1b7e:	8e 19       	sub	r24, r14
    1b80:	9f 09       	sbc	r25, r15
    1b82:	8c 17       	cp	r24, r28
    1b84:	9d 07       	cpc	r25, r29
    1b86:	34 f4       	brge	.+12     	; 0x1b94 <USART_SendByteArray+0x2c>
    1b88:	f8 01       	movw	r30, r16
    1b8a:	81 91       	ld	r24, Z+
    1b8c:	8f 01       	movw	r16, r30
    1b8e:	0e 94 ac 0d 	call	0x1b58	; 0x1b58 <USART_SendByte>
    1b92:	f4 cf       	rjmp	.-24     	; 0x1b7c <USART_SendByteArray+0x14>
    1b94:	5e 9b       	sbis	0x0b, 6	; 11
    1b96:	fe cf       	rjmp	.-4      	; 0x1b94 <USART_SendByteArray+0x2c>
    1b98:	df 91       	pop	r29
    1b9a:	cf 91       	pop	r28
    1b9c:	1f 91       	pop	r17
    1b9e:	0f 91       	pop	r16
    1ba0:	ff 90       	pop	r15
    1ba2:	ef 90       	pop	r14
    1ba4:	08 95       	ret

00001ba6 <vfprintf>:
    1ba6:	2f 92       	push	r2
    1ba8:	3f 92       	push	r3
    1baa:	4f 92       	push	r4
    1bac:	5f 92       	push	r5
    1bae:	6f 92       	push	r6
    1bb0:	7f 92       	push	r7
    1bb2:	8f 92       	push	r8
    1bb4:	9f 92       	push	r9
    1bb6:	af 92       	push	r10
    1bb8:	bf 92       	push	r11
    1bba:	cf 92       	push	r12
    1bbc:	df 92       	push	r13
    1bbe:	ef 92       	push	r14
    1bc0:	ff 92       	push	r15
    1bc2:	0f 93       	push	r16
    1bc4:	1f 93       	push	r17
    1bc6:	cf 93       	push	r28
    1bc8:	df 93       	push	r29
    1bca:	cd b7       	in	r28, 0x3d	; 61
    1bcc:	de b7       	in	r29, 0x3e	; 62
    1bce:	63 97       	sbiw	r28, 0x13	; 19
    1bd0:	0f b6       	in	r0, 0x3f	; 63
    1bd2:	f8 94       	cli
    1bd4:	de bf       	out	0x3e, r29	; 62
    1bd6:	0f be       	out	0x3f, r0	; 63
    1bd8:	cd bf       	out	0x3d, r28	; 61
    1bda:	6c 01       	movw	r12, r24
    1bdc:	4b 01       	movw	r8, r22
    1bde:	2a 01       	movw	r4, r20
    1be0:	fc 01       	movw	r30, r24
    1be2:	17 82       	std	Z+7, r1	; 0x07
    1be4:	16 82       	std	Z+6, r1	; 0x06
    1be6:	83 81       	ldd	r24, Z+3	; 0x03
    1be8:	81 ff       	sbrs	r24, 1
    1bea:	43 c3       	rjmp	.+1670   	; 0x2272 <vfprintf+0x6cc>
    1bec:	ae 01       	movw	r20, r28
    1bee:	4f 5f       	subi	r20, 0xFF	; 255
    1bf0:	5f 4f       	sbci	r21, 0xFF	; 255
    1bf2:	3a 01       	movw	r6, r20
    1bf4:	f6 01       	movw	r30, r12
    1bf6:	93 81       	ldd	r25, Z+3	; 0x03
    1bf8:	f4 01       	movw	r30, r8
    1bfa:	93 fd       	sbrc	r25, 3
    1bfc:	85 91       	lpm	r24, Z+
    1bfe:	93 ff       	sbrs	r25, 3
    1c00:	81 91       	ld	r24, Z+
    1c02:	4f 01       	movw	r8, r30
    1c04:	88 23       	and	r24, r24
    1c06:	09 f4       	brne	.+2      	; 0x1c0a <vfprintf+0x64>
    1c08:	30 c3       	rjmp	.+1632   	; 0x226a <vfprintf+0x6c4>
    1c0a:	85 32       	cpi	r24, 0x25	; 37
    1c0c:	39 f4       	brne	.+14     	; 0x1c1c <vfprintf+0x76>
    1c0e:	93 fd       	sbrc	r25, 3
    1c10:	85 91       	lpm	r24, Z+
    1c12:	93 ff       	sbrs	r25, 3
    1c14:	81 91       	ld	r24, Z+
    1c16:	4f 01       	movw	r8, r30
    1c18:	85 32       	cpi	r24, 0x25	; 37
    1c1a:	39 f4       	brne	.+14     	; 0x1c2a <vfprintf+0x84>
    1c1c:	b6 01       	movw	r22, r12
    1c1e:	90 e0       	ldi	r25, 0x00	; 0
    1c20:	0e 94 d1 16 	call	0x2da2	; 0x2da2 <fputc>
    1c24:	52 01       	movw	r10, r4
    1c26:	25 01       	movw	r4, r10
    1c28:	e5 cf       	rjmp	.-54     	; 0x1bf4 <vfprintf+0x4e>
    1c2a:	10 e0       	ldi	r17, 0x00	; 0
    1c2c:	f1 2c       	mov	r15, r1
    1c2e:	20 e0       	ldi	r18, 0x00	; 0
    1c30:	20 32       	cpi	r18, 0x20	; 32
    1c32:	a0 f4       	brcc	.+40     	; 0x1c5c <vfprintf+0xb6>
    1c34:	8b 32       	cpi	r24, 0x2B	; 43
    1c36:	69 f0       	breq	.+26     	; 0x1c52 <vfprintf+0xac>
    1c38:	30 f4       	brcc	.+12     	; 0x1c46 <vfprintf+0xa0>
    1c3a:	80 32       	cpi	r24, 0x20	; 32
    1c3c:	59 f0       	breq	.+22     	; 0x1c54 <vfprintf+0xae>
    1c3e:	83 32       	cpi	r24, 0x23	; 35
    1c40:	69 f4       	brne	.+26     	; 0x1c5c <vfprintf+0xb6>
    1c42:	20 61       	ori	r18, 0x10	; 16
    1c44:	2c c0       	rjmp	.+88     	; 0x1c9e <vfprintf+0xf8>
    1c46:	8d 32       	cpi	r24, 0x2D	; 45
    1c48:	39 f0       	breq	.+14     	; 0x1c58 <vfprintf+0xb2>
    1c4a:	80 33       	cpi	r24, 0x30	; 48
    1c4c:	39 f4       	brne	.+14     	; 0x1c5c <vfprintf+0xb6>
    1c4e:	21 60       	ori	r18, 0x01	; 1
    1c50:	26 c0       	rjmp	.+76     	; 0x1c9e <vfprintf+0xf8>
    1c52:	22 60       	ori	r18, 0x02	; 2
    1c54:	24 60       	ori	r18, 0x04	; 4
    1c56:	23 c0       	rjmp	.+70     	; 0x1c9e <vfprintf+0xf8>
    1c58:	28 60       	ori	r18, 0x08	; 8
    1c5a:	21 c0       	rjmp	.+66     	; 0x1c9e <vfprintf+0xf8>
    1c5c:	27 fd       	sbrc	r18, 7
    1c5e:	27 c0       	rjmp	.+78     	; 0x1cae <vfprintf+0x108>
    1c60:	30 ed       	ldi	r19, 0xD0	; 208
    1c62:	38 0f       	add	r19, r24
    1c64:	3a 30       	cpi	r19, 0x0A	; 10
    1c66:	78 f4       	brcc	.+30     	; 0x1c86 <vfprintf+0xe0>
    1c68:	26 ff       	sbrs	r18, 6
    1c6a:	06 c0       	rjmp	.+12     	; 0x1c78 <vfprintf+0xd2>
    1c6c:	fa e0       	ldi	r31, 0x0A	; 10
    1c6e:	1f 9f       	mul	r17, r31
    1c70:	30 0d       	add	r19, r0
    1c72:	11 24       	eor	r1, r1
    1c74:	13 2f       	mov	r17, r19
    1c76:	13 c0       	rjmp	.+38     	; 0x1c9e <vfprintf+0xf8>
    1c78:	4a e0       	ldi	r20, 0x0A	; 10
    1c7a:	f4 9e       	mul	r15, r20
    1c7c:	30 0d       	add	r19, r0
    1c7e:	11 24       	eor	r1, r1
    1c80:	f3 2e       	mov	r15, r19
    1c82:	20 62       	ori	r18, 0x20	; 32
    1c84:	0c c0       	rjmp	.+24     	; 0x1c9e <vfprintf+0xf8>
    1c86:	8e 32       	cpi	r24, 0x2E	; 46
    1c88:	21 f4       	brne	.+8      	; 0x1c92 <vfprintf+0xec>
    1c8a:	26 fd       	sbrc	r18, 6
    1c8c:	ee c2       	rjmp	.+1500   	; 0x226a <vfprintf+0x6c4>
    1c8e:	20 64       	ori	r18, 0x40	; 64
    1c90:	06 c0       	rjmp	.+12     	; 0x1c9e <vfprintf+0xf8>
    1c92:	8c 36       	cpi	r24, 0x6C	; 108
    1c94:	11 f4       	brne	.+4      	; 0x1c9a <vfprintf+0xf4>
    1c96:	20 68       	ori	r18, 0x80	; 128
    1c98:	02 c0       	rjmp	.+4      	; 0x1c9e <vfprintf+0xf8>
    1c9a:	88 36       	cpi	r24, 0x68	; 104
    1c9c:	41 f4       	brne	.+16     	; 0x1cae <vfprintf+0x108>
    1c9e:	f4 01       	movw	r30, r8
    1ca0:	93 fd       	sbrc	r25, 3
    1ca2:	85 91       	lpm	r24, Z+
    1ca4:	93 ff       	sbrs	r25, 3
    1ca6:	81 91       	ld	r24, Z+
    1ca8:	4f 01       	movw	r8, r30
    1caa:	81 11       	cpse	r24, r1
    1cac:	c1 cf       	rjmp	.-126    	; 0x1c30 <vfprintf+0x8a>
    1cae:	9b eb       	ldi	r25, 0xBB	; 187
    1cb0:	98 0f       	add	r25, r24
    1cb2:	93 30       	cpi	r25, 0x03	; 3
    1cb4:	18 f4       	brcc	.+6      	; 0x1cbc <vfprintf+0x116>
    1cb6:	20 61       	ori	r18, 0x10	; 16
    1cb8:	80 5e       	subi	r24, 0xE0	; 224
    1cba:	06 c0       	rjmp	.+12     	; 0x1cc8 <vfprintf+0x122>
    1cbc:	9b e9       	ldi	r25, 0x9B	; 155
    1cbe:	98 0f       	add	r25, r24
    1cc0:	93 30       	cpi	r25, 0x03	; 3
    1cc2:	08 f0       	brcs	.+2      	; 0x1cc6 <vfprintf+0x120>
    1cc4:	71 c1       	rjmp	.+738    	; 0x1fa8 <vfprintf+0x402>
    1cc6:	2f 7e       	andi	r18, 0xEF	; 239
    1cc8:	26 ff       	sbrs	r18, 6
    1cca:	16 e0       	ldi	r17, 0x06	; 6
    1ccc:	2f 73       	andi	r18, 0x3F	; 63
    1cce:	32 2e       	mov	r3, r18
    1cd0:	85 36       	cpi	r24, 0x65	; 101
    1cd2:	19 f4       	brne	.+6      	; 0x1cda <vfprintf+0x134>
    1cd4:	20 64       	ori	r18, 0x40	; 64
    1cd6:	32 2e       	mov	r3, r18
    1cd8:	08 c0       	rjmp	.+16     	; 0x1cea <vfprintf+0x144>
    1cda:	86 36       	cpi	r24, 0x66	; 102
    1cdc:	21 f4       	brne	.+8      	; 0x1ce6 <vfprintf+0x140>
    1cde:	f2 2f       	mov	r31, r18
    1ce0:	f0 68       	ori	r31, 0x80	; 128
    1ce2:	3f 2e       	mov	r3, r31
    1ce4:	02 c0       	rjmp	.+4      	; 0x1cea <vfprintf+0x144>
    1ce6:	11 11       	cpse	r17, r1
    1ce8:	11 50       	subi	r17, 0x01	; 1
    1cea:	37 fe       	sbrs	r3, 7
    1cec:	07 c0       	rjmp	.+14     	; 0x1cfc <vfprintf+0x156>
    1cee:	1c 33       	cpi	r17, 0x3C	; 60
    1cf0:	50 f4       	brcc	.+20     	; 0x1d06 <vfprintf+0x160>
    1cf2:	ee 24       	eor	r14, r14
    1cf4:	e3 94       	inc	r14
    1cf6:	e1 0e       	add	r14, r17
    1cf8:	27 e0       	ldi	r18, 0x07	; 7
    1cfa:	0b c0       	rjmp	.+22     	; 0x1d12 <vfprintf+0x16c>
    1cfc:	18 30       	cpi	r17, 0x08	; 8
    1cfe:	38 f0       	brcs	.+14     	; 0x1d0e <vfprintf+0x168>
    1d00:	27 e0       	ldi	r18, 0x07	; 7
    1d02:	17 e0       	ldi	r17, 0x07	; 7
    1d04:	05 c0       	rjmp	.+10     	; 0x1d10 <vfprintf+0x16a>
    1d06:	27 e0       	ldi	r18, 0x07	; 7
    1d08:	4c e3       	ldi	r20, 0x3C	; 60
    1d0a:	e4 2e       	mov	r14, r20
    1d0c:	02 c0       	rjmp	.+4      	; 0x1d12 <vfprintf+0x16c>
    1d0e:	21 2f       	mov	r18, r17
    1d10:	e1 2c       	mov	r14, r1
    1d12:	52 01       	movw	r10, r4
    1d14:	44 e0       	ldi	r20, 0x04	; 4
    1d16:	a4 0e       	add	r10, r20
    1d18:	b1 1c       	adc	r11, r1
    1d1a:	f2 01       	movw	r30, r4
    1d1c:	60 81       	ld	r22, Z
    1d1e:	71 81       	ldd	r23, Z+1	; 0x01
    1d20:	82 81       	ldd	r24, Z+2	; 0x02
    1d22:	93 81       	ldd	r25, Z+3	; 0x03
    1d24:	0e 2d       	mov	r16, r14
    1d26:	a3 01       	movw	r20, r6
    1d28:	0e 94 e3 15 	call	0x2bc6	; 0x2bc6 <__ftoa_engine>
    1d2c:	2c 01       	movw	r4, r24
    1d2e:	09 81       	ldd	r16, Y+1	; 0x01
    1d30:	00 ff       	sbrs	r16, 0
    1d32:	02 c0       	rjmp	.+4      	; 0x1d38 <vfprintf+0x192>
    1d34:	03 ff       	sbrs	r16, 3
    1d36:	07 c0       	rjmp	.+14     	; 0x1d46 <vfprintf+0x1a0>
    1d38:	31 fc       	sbrc	r3, 1
    1d3a:	08 c0       	rjmp	.+16     	; 0x1d4c <vfprintf+0x1a6>
    1d3c:	32 fe       	sbrs	r3, 2
    1d3e:	09 c0       	rjmp	.+18     	; 0x1d52 <vfprintf+0x1ac>
    1d40:	30 e2       	ldi	r19, 0x20	; 32
    1d42:	23 2e       	mov	r2, r19
    1d44:	07 c0       	rjmp	.+14     	; 0x1d54 <vfprintf+0x1ae>
    1d46:	2d e2       	ldi	r18, 0x2D	; 45
    1d48:	22 2e       	mov	r2, r18
    1d4a:	04 c0       	rjmp	.+8      	; 0x1d54 <vfprintf+0x1ae>
    1d4c:	9b e2       	ldi	r25, 0x2B	; 43
    1d4e:	29 2e       	mov	r2, r25
    1d50:	01 c0       	rjmp	.+2      	; 0x1d54 <vfprintf+0x1ae>
    1d52:	21 2c       	mov	r2, r1
    1d54:	80 2f       	mov	r24, r16
    1d56:	8c 70       	andi	r24, 0x0C	; 12
    1d58:	19 f0       	breq	.+6      	; 0x1d60 <vfprintf+0x1ba>
    1d5a:	21 10       	cpse	r2, r1
    1d5c:	68 c2       	rjmp	.+1232   	; 0x222e <vfprintf+0x688>
    1d5e:	a8 c2       	rjmp	.+1360   	; 0x22b0 <vfprintf+0x70a>
    1d60:	37 fe       	sbrs	r3, 7
    1d62:	0f c0       	rjmp	.+30     	; 0x1d82 <vfprintf+0x1dc>
    1d64:	e4 0c       	add	r14, r4
    1d66:	04 ff       	sbrs	r16, 4
    1d68:	04 c0       	rjmp	.+8      	; 0x1d72 <vfprintf+0x1cc>
    1d6a:	8a 81       	ldd	r24, Y+2	; 0x02
    1d6c:	81 33       	cpi	r24, 0x31	; 49
    1d6e:	09 f4       	brne	.+2      	; 0x1d72 <vfprintf+0x1cc>
    1d70:	ea 94       	dec	r14
    1d72:	1e 14       	cp	r1, r14
    1d74:	74 f5       	brge	.+92     	; 0x1dd2 <vfprintf+0x22c>
    1d76:	f8 e0       	ldi	r31, 0x08	; 8
    1d78:	fe 15       	cp	r31, r14
    1d7a:	78 f5       	brcc	.+94     	; 0x1dda <vfprintf+0x234>
    1d7c:	88 e0       	ldi	r24, 0x08	; 8
    1d7e:	e8 2e       	mov	r14, r24
    1d80:	2c c0       	rjmp	.+88     	; 0x1dda <vfprintf+0x234>
    1d82:	36 fc       	sbrc	r3, 6
    1d84:	2a c0       	rjmp	.+84     	; 0x1dda <vfprintf+0x234>
    1d86:	81 2f       	mov	r24, r17
    1d88:	90 e0       	ldi	r25, 0x00	; 0
    1d8a:	84 15       	cp	r24, r4
    1d8c:	95 05       	cpc	r25, r5
    1d8e:	9c f0       	brlt	.+38     	; 0x1db6 <vfprintf+0x210>
    1d90:	2c ef       	ldi	r18, 0xFC	; 252
    1d92:	42 16       	cp	r4, r18
    1d94:	2f ef       	ldi	r18, 0xFF	; 255
    1d96:	52 06       	cpc	r5, r18
    1d98:	74 f0       	brlt	.+28     	; 0x1db6 <vfprintf+0x210>
    1d9a:	43 2d       	mov	r20, r3
    1d9c:	40 68       	ori	r20, 0x80	; 128
    1d9e:	34 2e       	mov	r3, r20
    1da0:	0a c0       	rjmp	.+20     	; 0x1db6 <vfprintf+0x210>
    1da2:	e2 e0       	ldi	r30, 0x02	; 2
    1da4:	f0 e0       	ldi	r31, 0x00	; 0
    1da6:	ec 0f       	add	r30, r28
    1da8:	fd 1f       	adc	r31, r29
    1daa:	e1 0f       	add	r30, r17
    1dac:	f1 1d       	adc	r31, r1
    1dae:	80 81       	ld	r24, Z
    1db0:	80 33       	cpi	r24, 0x30	; 48
    1db2:	19 f4       	brne	.+6      	; 0x1dba <vfprintf+0x214>
    1db4:	11 50       	subi	r17, 0x01	; 1
    1db6:	11 11       	cpse	r17, r1
    1db8:	f4 cf       	rjmp	.-24     	; 0x1da2 <vfprintf+0x1fc>
    1dba:	37 fe       	sbrs	r3, 7
    1dbc:	0e c0       	rjmp	.+28     	; 0x1dda <vfprintf+0x234>
    1dbe:	ee 24       	eor	r14, r14
    1dc0:	e3 94       	inc	r14
    1dc2:	e1 0e       	add	r14, r17
    1dc4:	81 2f       	mov	r24, r17
    1dc6:	90 e0       	ldi	r25, 0x00	; 0
    1dc8:	48 16       	cp	r4, r24
    1dca:	59 06       	cpc	r5, r25
    1dcc:	2c f4       	brge	.+10     	; 0x1dd8 <vfprintf+0x232>
    1dce:	14 19       	sub	r17, r4
    1dd0:	04 c0       	rjmp	.+8      	; 0x1dda <vfprintf+0x234>
    1dd2:	ee 24       	eor	r14, r14
    1dd4:	e3 94       	inc	r14
    1dd6:	01 c0       	rjmp	.+2      	; 0x1dda <vfprintf+0x234>
    1dd8:	10 e0       	ldi	r17, 0x00	; 0
    1dda:	37 fe       	sbrs	r3, 7
    1ddc:	06 c0       	rjmp	.+12     	; 0x1dea <vfprintf+0x244>
    1dde:	14 14       	cp	r1, r4
    1de0:	15 04       	cpc	r1, r5
    1de2:	34 f4       	brge	.+12     	; 0x1df0 <vfprintf+0x24a>
    1de4:	c2 01       	movw	r24, r4
    1de6:	01 96       	adiw	r24, 0x01	; 1
    1de8:	05 c0       	rjmp	.+10     	; 0x1df4 <vfprintf+0x24e>
    1dea:	85 e0       	ldi	r24, 0x05	; 5
    1dec:	90 e0       	ldi	r25, 0x00	; 0
    1dee:	02 c0       	rjmp	.+4      	; 0x1df4 <vfprintf+0x24e>
    1df0:	81 e0       	ldi	r24, 0x01	; 1
    1df2:	90 e0       	ldi	r25, 0x00	; 0
    1df4:	21 10       	cpse	r2, r1
    1df6:	01 96       	adiw	r24, 0x01	; 1
    1df8:	11 23       	and	r17, r17
    1dfa:	31 f0       	breq	.+12     	; 0x1e08 <vfprintf+0x262>
    1dfc:	21 2f       	mov	r18, r17
    1dfe:	30 e0       	ldi	r19, 0x00	; 0
    1e00:	2f 5f       	subi	r18, 0xFF	; 255
    1e02:	3f 4f       	sbci	r19, 0xFF	; 255
    1e04:	82 0f       	add	r24, r18
    1e06:	93 1f       	adc	r25, r19
    1e08:	2f 2d       	mov	r18, r15
    1e0a:	30 e0       	ldi	r19, 0x00	; 0
    1e0c:	82 17       	cp	r24, r18
    1e0e:	93 07       	cpc	r25, r19
    1e10:	14 f4       	brge	.+4      	; 0x1e16 <vfprintf+0x270>
    1e12:	f8 1a       	sub	r15, r24
    1e14:	01 c0       	rjmp	.+2      	; 0x1e18 <vfprintf+0x272>
    1e16:	f1 2c       	mov	r15, r1
    1e18:	83 2d       	mov	r24, r3
    1e1a:	89 70       	andi	r24, 0x09	; 9
    1e1c:	49 f4       	brne	.+18     	; 0x1e30 <vfprintf+0x28a>
    1e1e:	ff 20       	and	r15, r15
    1e20:	39 f0       	breq	.+14     	; 0x1e30 <vfprintf+0x28a>
    1e22:	b6 01       	movw	r22, r12
    1e24:	80 e2       	ldi	r24, 0x20	; 32
    1e26:	90 e0       	ldi	r25, 0x00	; 0
    1e28:	0e 94 d1 16 	call	0x2da2	; 0x2da2 <fputc>
    1e2c:	fa 94       	dec	r15
    1e2e:	f7 cf       	rjmp	.-18     	; 0x1e1e <vfprintf+0x278>
    1e30:	22 20       	and	r2, r2
    1e32:	29 f0       	breq	.+10     	; 0x1e3e <vfprintf+0x298>
    1e34:	b6 01       	movw	r22, r12
    1e36:	82 2d       	mov	r24, r2
    1e38:	90 e0       	ldi	r25, 0x00	; 0
    1e3a:	0e 94 d1 16 	call	0x2da2	; 0x2da2 <fputc>
    1e3e:	33 fc       	sbrc	r3, 3
    1e40:	09 c0       	rjmp	.+18     	; 0x1e54 <vfprintf+0x2ae>
    1e42:	ff 20       	and	r15, r15
    1e44:	39 f0       	breq	.+14     	; 0x1e54 <vfprintf+0x2ae>
    1e46:	b6 01       	movw	r22, r12
    1e48:	80 e3       	ldi	r24, 0x30	; 48
    1e4a:	90 e0       	ldi	r25, 0x00	; 0
    1e4c:	0e 94 d1 16 	call	0x2da2	; 0x2da2 <fputc>
    1e50:	fa 94       	dec	r15
    1e52:	f7 cf       	rjmp	.-18     	; 0x1e42 <vfprintf+0x29c>
    1e54:	37 fe       	sbrs	r3, 7
    1e56:	5a c0       	rjmp	.+180    	; 0x1f0c <vfprintf+0x366>
    1e58:	94 2d       	mov	r25, r4
    1e5a:	85 2d       	mov	r24, r5
    1e5c:	57 fe       	sbrs	r5, 7
    1e5e:	02 c0       	rjmp	.+4      	; 0x1e64 <vfprintf+0x2be>
    1e60:	90 e0       	ldi	r25, 0x00	; 0
    1e62:	80 e0       	ldi	r24, 0x00	; 0
    1e64:	29 2e       	mov	r2, r25
    1e66:	38 2e       	mov	r3, r24
    1e68:	20 e0       	ldi	r18, 0x00	; 0
    1e6a:	30 e0       	ldi	r19, 0x00	; 0
    1e6c:	a2 01       	movw	r20, r4
    1e6e:	4e 19       	sub	r20, r14
    1e70:	51 09       	sbc	r21, r1
    1e72:	5d 87       	std	Y+13, r21	; 0x0d
    1e74:	4c 87       	std	Y+12, r20	; 0x0c
    1e76:	a2 01       	movw	r20, r4
    1e78:	42 19       	sub	r20, r2
    1e7a:	53 09       	sbc	r21, r3
    1e7c:	5f 87       	std	Y+15, r21	; 0x0f
    1e7e:	4e 87       	std	Y+14, r20	; 0x0e
    1e80:	61 2f       	mov	r22, r17
    1e82:	70 e0       	ldi	r23, 0x00	; 0
    1e84:	44 27       	eor	r20, r20
    1e86:	55 27       	eor	r21, r21
    1e88:	46 1b       	sub	r20, r22
    1e8a:	57 0b       	sbc	r21, r23
    1e8c:	59 8b       	std	Y+17, r21	; 0x11
    1e8e:	48 8b       	std	Y+16, r20	; 0x10
    1e90:	5f ef       	ldi	r21, 0xFF	; 255
    1e92:	25 16       	cp	r2, r21
    1e94:	35 06       	cpc	r3, r21
    1e96:	49 f4       	brne	.+18     	; 0x1eaa <vfprintf+0x304>
    1e98:	b6 01       	movw	r22, r12
    1e9a:	8e e2       	ldi	r24, 0x2E	; 46
    1e9c:	90 e0       	ldi	r25, 0x00	; 0
    1e9e:	2a 8b       	std	Y+18, r18	; 0x12
    1ea0:	3b 8b       	std	Y+19, r19	; 0x13
    1ea2:	0e 94 d1 16 	call	0x2da2	; 0x2da2 <fputc>
    1ea6:	3b 89       	ldd	r19, Y+19	; 0x13
    1ea8:	2a 89       	ldd	r18, Y+18	; 0x12
    1eaa:	42 14       	cp	r4, r2
    1eac:	53 04       	cpc	r5, r3
    1eae:	6c f0       	brlt	.+26     	; 0x1eca <vfprintf+0x324>
    1eb0:	4c 85       	ldd	r20, Y+12	; 0x0c
    1eb2:	5d 85       	ldd	r21, Y+13	; 0x0d
    1eb4:	42 15       	cp	r20, r2
    1eb6:	53 05       	cpc	r21, r3
    1eb8:	44 f4       	brge	.+16     	; 0x1eca <vfprintf+0x324>
    1eba:	ee 85       	ldd	r30, Y+14	; 0x0e
    1ebc:	ff 85       	ldd	r31, Y+15	; 0x0f
    1ebe:	e2 0f       	add	r30, r18
    1ec0:	f3 1f       	adc	r31, r19
    1ec2:	e6 0d       	add	r30, r6
    1ec4:	f7 1d       	adc	r31, r7
    1ec6:	81 81       	ldd	r24, Z+1	; 0x01
    1ec8:	01 c0       	rjmp	.+2      	; 0x1ecc <vfprintf+0x326>
    1eca:	80 e3       	ldi	r24, 0x30	; 48
    1ecc:	51 e0       	ldi	r21, 0x01	; 1
    1ece:	25 1a       	sub	r2, r21
    1ed0:	31 08       	sbc	r3, r1
    1ed2:	2f 5f       	subi	r18, 0xFF	; 255
    1ed4:	3f 4f       	sbci	r19, 0xFF	; 255
    1ed6:	48 89       	ldd	r20, Y+16	; 0x10
    1ed8:	59 89       	ldd	r21, Y+17	; 0x11
    1eda:	24 16       	cp	r2, r20
    1edc:	35 06       	cpc	r3, r21
    1ede:	4c f0       	brlt	.+18     	; 0x1ef2 <vfprintf+0x34c>
    1ee0:	b6 01       	movw	r22, r12
    1ee2:	90 e0       	ldi	r25, 0x00	; 0
    1ee4:	2a 8b       	std	Y+18, r18	; 0x12
    1ee6:	3b 8b       	std	Y+19, r19	; 0x13
    1ee8:	0e 94 d1 16 	call	0x2da2	; 0x2da2 <fputc>
    1eec:	2a 89       	ldd	r18, Y+18	; 0x12
    1eee:	3b 89       	ldd	r19, Y+19	; 0x13
    1ef0:	cf cf       	rjmp	.-98     	; 0x1e90 <vfprintf+0x2ea>
    1ef2:	24 14       	cp	r2, r4
    1ef4:	35 04       	cpc	r3, r5
    1ef6:	39 f4       	brne	.+14     	; 0x1f06 <vfprintf+0x360>
    1ef8:	9a 81       	ldd	r25, Y+2	; 0x02
    1efa:	96 33       	cpi	r25, 0x36	; 54
    1efc:	18 f4       	brcc	.+6      	; 0x1f04 <vfprintf+0x35e>
    1efe:	95 33       	cpi	r25, 0x35	; 53
    1f00:	11 f4       	brne	.+4      	; 0x1f06 <vfprintf+0x360>
    1f02:	04 ff       	sbrs	r16, 4
    1f04:	81 e3       	ldi	r24, 0x31	; 49
    1f06:	b6 01       	movw	r22, r12
    1f08:	90 e0       	ldi	r25, 0x00	; 0
    1f0a:	4b c0       	rjmp	.+150    	; 0x1fa2 <vfprintf+0x3fc>
    1f0c:	8a 81       	ldd	r24, Y+2	; 0x02
    1f0e:	81 33       	cpi	r24, 0x31	; 49
    1f10:	09 f0       	breq	.+2      	; 0x1f14 <vfprintf+0x36e>
    1f12:	0f 7e       	andi	r16, 0xEF	; 239
    1f14:	b6 01       	movw	r22, r12
    1f16:	90 e0       	ldi	r25, 0x00	; 0
    1f18:	0e 94 d1 16 	call	0x2da2	; 0x2da2 <fputc>
    1f1c:	11 11       	cpse	r17, r1
    1f1e:	05 c0       	rjmp	.+10     	; 0x1f2a <vfprintf+0x384>
    1f20:	34 fc       	sbrc	r3, 4
    1f22:	18 c0       	rjmp	.+48     	; 0x1f54 <vfprintf+0x3ae>
    1f24:	85 e6       	ldi	r24, 0x65	; 101
    1f26:	90 e0       	ldi	r25, 0x00	; 0
    1f28:	17 c0       	rjmp	.+46     	; 0x1f58 <vfprintf+0x3b2>
    1f2a:	b6 01       	movw	r22, r12
    1f2c:	8e e2       	ldi	r24, 0x2E	; 46
    1f2e:	90 e0       	ldi	r25, 0x00	; 0
    1f30:	0e 94 d1 16 	call	0x2da2	; 0x2da2 <fputc>
    1f34:	82 e0       	ldi	r24, 0x02	; 2
    1f36:	ee 24       	eor	r14, r14
    1f38:	e3 94       	inc	r14
    1f3a:	e8 0e       	add	r14, r24
    1f3c:	f3 01       	movw	r30, r6
    1f3e:	e8 0f       	add	r30, r24
    1f40:	f1 1d       	adc	r31, r1
    1f42:	80 81       	ld	r24, Z
    1f44:	b6 01       	movw	r22, r12
    1f46:	90 e0       	ldi	r25, 0x00	; 0
    1f48:	0e 94 d1 16 	call	0x2da2	; 0x2da2 <fputc>
    1f4c:	11 50       	subi	r17, 0x01	; 1
    1f4e:	8e 2d       	mov	r24, r14
    1f50:	91 f7       	brne	.-28     	; 0x1f36 <vfprintf+0x390>
    1f52:	e6 cf       	rjmp	.-52     	; 0x1f20 <vfprintf+0x37a>
    1f54:	85 e4       	ldi	r24, 0x45	; 69
    1f56:	90 e0       	ldi	r25, 0x00	; 0
    1f58:	b6 01       	movw	r22, r12
    1f5a:	0e 94 d1 16 	call	0x2da2	; 0x2da2 <fputc>
    1f5e:	57 fc       	sbrc	r5, 7
    1f60:	05 c0       	rjmp	.+10     	; 0x1f6c <vfprintf+0x3c6>
    1f62:	41 14       	cp	r4, r1
    1f64:	51 04       	cpc	r5, r1
    1f66:	39 f4       	brne	.+14     	; 0x1f76 <vfprintf+0x3d0>
    1f68:	04 ff       	sbrs	r16, 4
    1f6a:	05 c0       	rjmp	.+10     	; 0x1f76 <vfprintf+0x3d0>
    1f6c:	51 94       	neg	r5
    1f6e:	41 94       	neg	r4
    1f70:	51 08       	sbc	r5, r1
    1f72:	8d e2       	ldi	r24, 0x2D	; 45
    1f74:	01 c0       	rjmp	.+2      	; 0x1f78 <vfprintf+0x3d2>
    1f76:	8b e2       	ldi	r24, 0x2B	; 43
    1f78:	b6 01       	movw	r22, r12
    1f7a:	90 e0       	ldi	r25, 0x00	; 0
    1f7c:	0e 94 d1 16 	call	0x2da2	; 0x2da2 <fputc>
    1f80:	80 e3       	ldi	r24, 0x30	; 48
    1f82:	9a e0       	ldi	r25, 0x0A	; 10
    1f84:	49 16       	cp	r4, r25
    1f86:	51 04       	cpc	r5, r1
    1f88:	2c f0       	brlt	.+10     	; 0x1f94 <vfprintf+0x3ee>
    1f8a:	8f 5f       	subi	r24, 0xFF	; 255
    1f8c:	5a e0       	ldi	r21, 0x0A	; 10
    1f8e:	45 1a       	sub	r4, r21
    1f90:	51 08       	sbc	r5, r1
    1f92:	f7 cf       	rjmp	.-18     	; 0x1f82 <vfprintf+0x3dc>
    1f94:	b6 01       	movw	r22, r12
    1f96:	90 e0       	ldi	r25, 0x00	; 0
    1f98:	0e 94 d1 16 	call	0x2da2	; 0x2da2 <fputc>
    1f9c:	b6 01       	movw	r22, r12
    1f9e:	c2 01       	movw	r24, r4
    1fa0:	c0 96       	adiw	r24, 0x30	; 48
    1fa2:	0e 94 d1 16 	call	0x2da2	; 0x2da2 <fputc>
    1fa6:	57 c1       	rjmp	.+686    	; 0x2256 <vfprintf+0x6b0>
    1fa8:	83 36       	cpi	r24, 0x63	; 99
    1faa:	31 f0       	breq	.+12     	; 0x1fb8 <vfprintf+0x412>
    1fac:	83 37       	cpi	r24, 0x73	; 115
    1fae:	79 f0       	breq	.+30     	; 0x1fce <vfprintf+0x428>
    1fb0:	83 35       	cpi	r24, 0x53	; 83
    1fb2:	09 f0       	breq	.+2      	; 0x1fb6 <vfprintf+0x410>
    1fb4:	58 c0       	rjmp	.+176    	; 0x2066 <vfprintf+0x4c0>
    1fb6:	21 c0       	rjmp	.+66     	; 0x1ffa <vfprintf+0x454>
    1fb8:	52 01       	movw	r10, r4
    1fba:	e2 e0       	ldi	r30, 0x02	; 2
    1fbc:	ae 0e       	add	r10, r30
    1fbe:	b1 1c       	adc	r11, r1
    1fc0:	f2 01       	movw	r30, r4
    1fc2:	80 81       	ld	r24, Z
    1fc4:	89 83       	std	Y+1, r24	; 0x01
    1fc6:	01 e0       	ldi	r16, 0x01	; 1
    1fc8:	10 e0       	ldi	r17, 0x00	; 0
    1fca:	23 01       	movw	r4, r6
    1fcc:	14 c0       	rjmp	.+40     	; 0x1ff6 <vfprintf+0x450>
    1fce:	52 01       	movw	r10, r4
    1fd0:	f2 e0       	ldi	r31, 0x02	; 2
    1fd2:	af 0e       	add	r10, r31
    1fd4:	b1 1c       	adc	r11, r1
    1fd6:	f2 01       	movw	r30, r4
    1fd8:	40 80       	ld	r4, Z
    1fda:	51 80       	ldd	r5, Z+1	; 0x01
    1fdc:	26 ff       	sbrs	r18, 6
    1fde:	03 c0       	rjmp	.+6      	; 0x1fe6 <vfprintf+0x440>
    1fe0:	61 2f       	mov	r22, r17
    1fe2:	70 e0       	ldi	r23, 0x00	; 0
    1fe4:	02 c0       	rjmp	.+4      	; 0x1fea <vfprintf+0x444>
    1fe6:	6f ef       	ldi	r22, 0xFF	; 255
    1fe8:	7f ef       	ldi	r23, 0xFF	; 255
    1fea:	c2 01       	movw	r24, r4
    1fec:	2a 8b       	std	Y+18, r18	; 0x12
    1fee:	0e 94 c6 16 	call	0x2d8c	; 0x2d8c <strnlen>
    1ff2:	8c 01       	movw	r16, r24
    1ff4:	2a 89       	ldd	r18, Y+18	; 0x12
    1ff6:	2f 77       	andi	r18, 0x7F	; 127
    1ff8:	15 c0       	rjmp	.+42     	; 0x2024 <vfprintf+0x47e>
    1ffa:	52 01       	movw	r10, r4
    1ffc:	f2 e0       	ldi	r31, 0x02	; 2
    1ffe:	af 0e       	add	r10, r31
    2000:	b1 1c       	adc	r11, r1
    2002:	f2 01       	movw	r30, r4
    2004:	40 80       	ld	r4, Z
    2006:	51 80       	ldd	r5, Z+1	; 0x01
    2008:	26 ff       	sbrs	r18, 6
    200a:	03 c0       	rjmp	.+6      	; 0x2012 <vfprintf+0x46c>
    200c:	61 2f       	mov	r22, r17
    200e:	70 e0       	ldi	r23, 0x00	; 0
    2010:	02 c0       	rjmp	.+4      	; 0x2016 <vfprintf+0x470>
    2012:	6f ef       	ldi	r22, 0xFF	; 255
    2014:	7f ef       	ldi	r23, 0xFF	; 255
    2016:	c2 01       	movw	r24, r4
    2018:	2a 8b       	std	Y+18, r18	; 0x12
    201a:	0e 94 bb 16 	call	0x2d76	; 0x2d76 <strnlen_P>
    201e:	8c 01       	movw	r16, r24
    2020:	2a 89       	ldd	r18, Y+18	; 0x12
    2022:	20 68       	ori	r18, 0x80	; 128
    2024:	32 2e       	mov	r3, r18
    2026:	23 fd       	sbrc	r18, 3
    2028:	1a c0       	rjmp	.+52     	; 0x205e <vfprintf+0x4b8>
    202a:	8f 2d       	mov	r24, r15
    202c:	90 e0       	ldi	r25, 0x00	; 0
    202e:	08 17       	cp	r16, r24
    2030:	19 07       	cpc	r17, r25
    2032:	a8 f4       	brcc	.+42     	; 0x205e <vfprintf+0x4b8>
    2034:	b6 01       	movw	r22, r12
    2036:	80 e2       	ldi	r24, 0x20	; 32
    2038:	90 e0       	ldi	r25, 0x00	; 0
    203a:	0e 94 d1 16 	call	0x2da2	; 0x2da2 <fputc>
    203e:	fa 94       	dec	r15
    2040:	f4 cf       	rjmp	.-24     	; 0x202a <vfprintf+0x484>
    2042:	f2 01       	movw	r30, r4
    2044:	37 fc       	sbrc	r3, 7
    2046:	85 91       	lpm	r24, Z+
    2048:	37 fe       	sbrs	r3, 7
    204a:	81 91       	ld	r24, Z+
    204c:	2f 01       	movw	r4, r30
    204e:	b6 01       	movw	r22, r12
    2050:	90 e0       	ldi	r25, 0x00	; 0
    2052:	0e 94 d1 16 	call	0x2da2	; 0x2da2 <fputc>
    2056:	f1 10       	cpse	r15, r1
    2058:	fa 94       	dec	r15
    205a:	01 50       	subi	r16, 0x01	; 1
    205c:	11 09       	sbc	r17, r1
    205e:	01 15       	cp	r16, r1
    2060:	11 05       	cpc	r17, r1
    2062:	79 f7       	brne	.-34     	; 0x2042 <vfprintf+0x49c>
    2064:	f8 c0       	rjmp	.+496    	; 0x2256 <vfprintf+0x6b0>
    2066:	84 36       	cpi	r24, 0x64	; 100
    2068:	11 f0       	breq	.+4      	; 0x206e <vfprintf+0x4c8>
    206a:	89 36       	cpi	r24, 0x69	; 105
    206c:	59 f5       	brne	.+86     	; 0x20c4 <vfprintf+0x51e>
    206e:	52 01       	movw	r10, r4
    2070:	27 ff       	sbrs	r18, 7
    2072:	09 c0       	rjmp	.+18     	; 0x2086 <vfprintf+0x4e0>
    2074:	f4 e0       	ldi	r31, 0x04	; 4
    2076:	af 0e       	add	r10, r31
    2078:	b1 1c       	adc	r11, r1
    207a:	f2 01       	movw	r30, r4
    207c:	60 81       	ld	r22, Z
    207e:	71 81       	ldd	r23, Z+1	; 0x01
    2080:	82 81       	ldd	r24, Z+2	; 0x02
    2082:	93 81       	ldd	r25, Z+3	; 0x03
    2084:	0a c0       	rjmp	.+20     	; 0x209a <vfprintf+0x4f4>
    2086:	f2 e0       	ldi	r31, 0x02	; 2
    2088:	af 0e       	add	r10, r31
    208a:	b1 1c       	adc	r11, r1
    208c:	f2 01       	movw	r30, r4
    208e:	60 81       	ld	r22, Z
    2090:	71 81       	ldd	r23, Z+1	; 0x01
    2092:	07 2e       	mov	r0, r23
    2094:	00 0c       	add	r0, r0
    2096:	88 0b       	sbc	r24, r24
    2098:	99 0b       	sbc	r25, r25
    209a:	2f 76       	andi	r18, 0x6F	; 111
    209c:	32 2e       	mov	r3, r18
    209e:	97 ff       	sbrs	r25, 7
    20a0:	09 c0       	rjmp	.+18     	; 0x20b4 <vfprintf+0x50e>
    20a2:	90 95       	com	r25
    20a4:	80 95       	com	r24
    20a6:	70 95       	com	r23
    20a8:	61 95       	neg	r22
    20aa:	7f 4f       	sbci	r23, 0xFF	; 255
    20ac:	8f 4f       	sbci	r24, 0xFF	; 255
    20ae:	9f 4f       	sbci	r25, 0xFF	; 255
    20b0:	20 68       	ori	r18, 0x80	; 128
    20b2:	32 2e       	mov	r3, r18
    20b4:	2a e0       	ldi	r18, 0x0A	; 10
    20b6:	30 e0       	ldi	r19, 0x00	; 0
    20b8:	a3 01       	movw	r20, r6
    20ba:	0e 94 4d 17 	call	0x2e9a	; 0x2e9a <__ultoa_invert>
    20be:	e8 2e       	mov	r14, r24
    20c0:	e6 18       	sub	r14, r6
    20c2:	3f c0       	rjmp	.+126    	; 0x2142 <vfprintf+0x59c>
    20c4:	02 2f       	mov	r16, r18
    20c6:	85 37       	cpi	r24, 0x75	; 117
    20c8:	21 f4       	brne	.+8      	; 0x20d2 <vfprintf+0x52c>
    20ca:	0f 7e       	andi	r16, 0xEF	; 239
    20cc:	2a e0       	ldi	r18, 0x0A	; 10
    20ce:	30 e0       	ldi	r19, 0x00	; 0
    20d0:	1d c0       	rjmp	.+58     	; 0x210c <vfprintf+0x566>
    20d2:	09 7f       	andi	r16, 0xF9	; 249
    20d4:	8f 36       	cpi	r24, 0x6F	; 111
    20d6:	91 f0       	breq	.+36     	; 0x20fc <vfprintf+0x556>
    20d8:	18 f4       	brcc	.+6      	; 0x20e0 <vfprintf+0x53a>
    20da:	88 35       	cpi	r24, 0x58	; 88
    20dc:	59 f0       	breq	.+22     	; 0x20f4 <vfprintf+0x54e>
    20de:	c5 c0       	rjmp	.+394    	; 0x226a <vfprintf+0x6c4>
    20e0:	80 37       	cpi	r24, 0x70	; 112
    20e2:	19 f0       	breq	.+6      	; 0x20ea <vfprintf+0x544>
    20e4:	88 37       	cpi	r24, 0x78	; 120
    20e6:	11 f0       	breq	.+4      	; 0x20ec <vfprintf+0x546>
    20e8:	c0 c0       	rjmp	.+384    	; 0x226a <vfprintf+0x6c4>
    20ea:	00 61       	ori	r16, 0x10	; 16
    20ec:	04 ff       	sbrs	r16, 4
    20ee:	09 c0       	rjmp	.+18     	; 0x2102 <vfprintf+0x55c>
    20f0:	04 60       	ori	r16, 0x04	; 4
    20f2:	07 c0       	rjmp	.+14     	; 0x2102 <vfprintf+0x55c>
    20f4:	24 ff       	sbrs	r18, 4
    20f6:	08 c0       	rjmp	.+16     	; 0x2108 <vfprintf+0x562>
    20f8:	06 60       	ori	r16, 0x06	; 6
    20fa:	06 c0       	rjmp	.+12     	; 0x2108 <vfprintf+0x562>
    20fc:	28 e0       	ldi	r18, 0x08	; 8
    20fe:	30 e0       	ldi	r19, 0x00	; 0
    2100:	05 c0       	rjmp	.+10     	; 0x210c <vfprintf+0x566>
    2102:	20 e1       	ldi	r18, 0x10	; 16
    2104:	30 e0       	ldi	r19, 0x00	; 0
    2106:	02 c0       	rjmp	.+4      	; 0x210c <vfprintf+0x566>
    2108:	20 e1       	ldi	r18, 0x10	; 16
    210a:	32 e0       	ldi	r19, 0x02	; 2
    210c:	52 01       	movw	r10, r4
    210e:	07 ff       	sbrs	r16, 7
    2110:	09 c0       	rjmp	.+18     	; 0x2124 <vfprintf+0x57e>
    2112:	f4 e0       	ldi	r31, 0x04	; 4
    2114:	af 0e       	add	r10, r31
    2116:	b1 1c       	adc	r11, r1
    2118:	f2 01       	movw	r30, r4
    211a:	60 81       	ld	r22, Z
    211c:	71 81       	ldd	r23, Z+1	; 0x01
    211e:	82 81       	ldd	r24, Z+2	; 0x02
    2120:	93 81       	ldd	r25, Z+3	; 0x03
    2122:	08 c0       	rjmp	.+16     	; 0x2134 <vfprintf+0x58e>
    2124:	f2 e0       	ldi	r31, 0x02	; 2
    2126:	af 0e       	add	r10, r31
    2128:	b1 1c       	adc	r11, r1
    212a:	f2 01       	movw	r30, r4
    212c:	60 81       	ld	r22, Z
    212e:	71 81       	ldd	r23, Z+1	; 0x01
    2130:	80 e0       	ldi	r24, 0x00	; 0
    2132:	90 e0       	ldi	r25, 0x00	; 0
    2134:	a3 01       	movw	r20, r6
    2136:	0e 94 4d 17 	call	0x2e9a	; 0x2e9a <__ultoa_invert>
    213a:	e8 2e       	mov	r14, r24
    213c:	e6 18       	sub	r14, r6
    213e:	0f 77       	andi	r16, 0x7F	; 127
    2140:	30 2e       	mov	r3, r16
    2142:	36 fe       	sbrs	r3, 6
    2144:	0b c0       	rjmp	.+22     	; 0x215c <vfprintf+0x5b6>
    2146:	33 2d       	mov	r19, r3
    2148:	3e 7f       	andi	r19, 0xFE	; 254
    214a:	e1 16       	cp	r14, r17
    214c:	50 f4       	brcc	.+20     	; 0x2162 <vfprintf+0x5bc>
    214e:	34 fe       	sbrs	r3, 4
    2150:	0a c0       	rjmp	.+20     	; 0x2166 <vfprintf+0x5c0>
    2152:	32 fc       	sbrc	r3, 2
    2154:	08 c0       	rjmp	.+16     	; 0x2166 <vfprintf+0x5c0>
    2156:	33 2d       	mov	r19, r3
    2158:	3e 7e       	andi	r19, 0xEE	; 238
    215a:	05 c0       	rjmp	.+10     	; 0x2166 <vfprintf+0x5c0>
    215c:	0e 2d       	mov	r16, r14
    215e:	33 2d       	mov	r19, r3
    2160:	03 c0       	rjmp	.+6      	; 0x2168 <vfprintf+0x5c2>
    2162:	0e 2d       	mov	r16, r14
    2164:	01 c0       	rjmp	.+2      	; 0x2168 <vfprintf+0x5c2>
    2166:	01 2f       	mov	r16, r17
    2168:	34 ff       	sbrs	r19, 4
    216a:	0c c0       	rjmp	.+24     	; 0x2184 <vfprintf+0x5de>
    216c:	fe 01       	movw	r30, r28
    216e:	ee 0d       	add	r30, r14
    2170:	f1 1d       	adc	r31, r1
    2172:	80 81       	ld	r24, Z
    2174:	80 33       	cpi	r24, 0x30	; 48
    2176:	11 f4       	brne	.+4      	; 0x217c <vfprintf+0x5d6>
    2178:	39 7e       	andi	r19, 0xE9	; 233
    217a:	08 c0       	rjmp	.+16     	; 0x218c <vfprintf+0x5e6>
    217c:	32 ff       	sbrs	r19, 2
    217e:	05 c0       	rjmp	.+10     	; 0x218a <vfprintf+0x5e4>
    2180:	0e 5f       	subi	r16, 0xFE	; 254
    2182:	04 c0       	rjmp	.+8      	; 0x218c <vfprintf+0x5e6>
    2184:	83 2f       	mov	r24, r19
    2186:	86 78       	andi	r24, 0x86	; 134
    2188:	09 f0       	breq	.+2      	; 0x218c <vfprintf+0x5e6>
    218a:	0f 5f       	subi	r16, 0xFF	; 255
    218c:	33 fd       	sbrc	r19, 3
    218e:	13 c0       	rjmp	.+38     	; 0x21b6 <vfprintf+0x610>
    2190:	30 ff       	sbrs	r19, 0
    2192:	06 c0       	rjmp	.+12     	; 0x21a0 <vfprintf+0x5fa>
    2194:	1e 2d       	mov	r17, r14
    2196:	0f 15       	cp	r16, r15
    2198:	18 f4       	brcc	.+6      	; 0x21a0 <vfprintf+0x5fa>
    219a:	1f 0d       	add	r17, r15
    219c:	10 1b       	sub	r17, r16
    219e:	0f 2d       	mov	r16, r15
    21a0:	0f 15       	cp	r16, r15
    21a2:	68 f4       	brcc	.+26     	; 0x21be <vfprintf+0x618>
    21a4:	b6 01       	movw	r22, r12
    21a6:	80 e2       	ldi	r24, 0x20	; 32
    21a8:	90 e0       	ldi	r25, 0x00	; 0
    21aa:	3b 8b       	std	Y+19, r19	; 0x13
    21ac:	0e 94 d1 16 	call	0x2da2	; 0x2da2 <fputc>
    21b0:	0f 5f       	subi	r16, 0xFF	; 255
    21b2:	3b 89       	ldd	r19, Y+19	; 0x13
    21b4:	f5 cf       	rjmp	.-22     	; 0x21a0 <vfprintf+0x5fa>
    21b6:	0f 15       	cp	r16, r15
    21b8:	10 f4       	brcc	.+4      	; 0x21be <vfprintf+0x618>
    21ba:	f0 1a       	sub	r15, r16
    21bc:	01 c0       	rjmp	.+2      	; 0x21c0 <vfprintf+0x61a>
    21be:	f1 2c       	mov	r15, r1
    21c0:	34 ff       	sbrs	r19, 4
    21c2:	12 c0       	rjmp	.+36     	; 0x21e8 <vfprintf+0x642>
    21c4:	b6 01       	movw	r22, r12
    21c6:	80 e3       	ldi	r24, 0x30	; 48
    21c8:	90 e0       	ldi	r25, 0x00	; 0
    21ca:	3b 8b       	std	Y+19, r19	; 0x13
    21cc:	0e 94 d1 16 	call	0x2da2	; 0x2da2 <fputc>
    21d0:	3b 89       	ldd	r19, Y+19	; 0x13
    21d2:	32 ff       	sbrs	r19, 2
    21d4:	17 c0       	rjmp	.+46     	; 0x2204 <vfprintf+0x65e>
    21d6:	31 fd       	sbrc	r19, 1
    21d8:	03 c0       	rjmp	.+6      	; 0x21e0 <vfprintf+0x63a>
    21da:	88 e7       	ldi	r24, 0x78	; 120
    21dc:	90 e0       	ldi	r25, 0x00	; 0
    21de:	02 c0       	rjmp	.+4      	; 0x21e4 <vfprintf+0x63e>
    21e0:	88 e5       	ldi	r24, 0x58	; 88
    21e2:	90 e0       	ldi	r25, 0x00	; 0
    21e4:	b6 01       	movw	r22, r12
    21e6:	0c c0       	rjmp	.+24     	; 0x2200 <vfprintf+0x65a>
    21e8:	83 2f       	mov	r24, r19
    21ea:	86 78       	andi	r24, 0x86	; 134
    21ec:	59 f0       	breq	.+22     	; 0x2204 <vfprintf+0x65e>
    21ee:	31 ff       	sbrs	r19, 1
    21f0:	02 c0       	rjmp	.+4      	; 0x21f6 <vfprintf+0x650>
    21f2:	8b e2       	ldi	r24, 0x2B	; 43
    21f4:	01 c0       	rjmp	.+2      	; 0x21f8 <vfprintf+0x652>
    21f6:	80 e2       	ldi	r24, 0x20	; 32
    21f8:	37 fd       	sbrc	r19, 7
    21fa:	8d e2       	ldi	r24, 0x2D	; 45
    21fc:	b6 01       	movw	r22, r12
    21fe:	90 e0       	ldi	r25, 0x00	; 0
    2200:	0e 94 d1 16 	call	0x2da2	; 0x2da2 <fputc>
    2204:	e1 16       	cp	r14, r17
    2206:	38 f4       	brcc	.+14     	; 0x2216 <vfprintf+0x670>
    2208:	b6 01       	movw	r22, r12
    220a:	80 e3       	ldi	r24, 0x30	; 48
    220c:	90 e0       	ldi	r25, 0x00	; 0
    220e:	0e 94 d1 16 	call	0x2da2	; 0x2da2 <fputc>
    2212:	11 50       	subi	r17, 0x01	; 1
    2214:	f7 cf       	rjmp	.-18     	; 0x2204 <vfprintf+0x65e>
    2216:	ea 94       	dec	r14
    2218:	f3 01       	movw	r30, r6
    221a:	ee 0d       	add	r30, r14
    221c:	f1 1d       	adc	r31, r1
    221e:	80 81       	ld	r24, Z
    2220:	b6 01       	movw	r22, r12
    2222:	90 e0       	ldi	r25, 0x00	; 0
    2224:	0e 94 d1 16 	call	0x2da2	; 0x2da2 <fputc>
    2228:	e1 10       	cpse	r14, r1
    222a:	f5 cf       	rjmp	.-22     	; 0x2216 <vfprintf+0x670>
    222c:	14 c0       	rjmp	.+40     	; 0x2256 <vfprintf+0x6b0>
    222e:	f4 e0       	ldi	r31, 0x04	; 4
    2230:	ff 15       	cp	r31, r15
    2232:	58 f5       	brcc	.+86     	; 0x228a <vfprintf+0x6e4>
    2234:	84 e0       	ldi	r24, 0x04	; 4
    2236:	f8 1a       	sub	r15, r24
    2238:	33 fe       	sbrs	r3, 3
    223a:	1e c0       	rjmp	.+60     	; 0x2278 <vfprintf+0x6d2>
    223c:	21 10       	cpse	r2, r1
    223e:	26 c0       	rjmp	.+76     	; 0x228c <vfprintf+0x6e6>
    2240:	03 ff       	sbrs	r16, 3
    2242:	2a c0       	rjmp	.+84     	; 0x2298 <vfprintf+0x6f2>
    2244:	0e e0       	ldi	r16, 0x0E	; 14
    2246:	11 e0       	ldi	r17, 0x01	; 1
    2248:	f3 2d       	mov	r31, r3
    224a:	f0 71       	andi	r31, 0x10	; 16
    224c:	3f 2e       	mov	r3, r31
    224e:	f8 01       	movw	r30, r16
    2250:	84 91       	lpm	r24, Z
    2252:	81 11       	cpse	r24, r1
    2254:	24 c0       	rjmp	.+72     	; 0x229e <vfprintf+0x6f8>
    2256:	ff 20       	and	r15, r15
    2258:	09 f4       	brne	.+2      	; 0x225c <vfprintf+0x6b6>
    225a:	e5 cc       	rjmp	.-1590   	; 0x1c26 <vfprintf+0x80>
    225c:	b6 01       	movw	r22, r12
    225e:	80 e2       	ldi	r24, 0x20	; 32
    2260:	90 e0       	ldi	r25, 0x00	; 0
    2262:	0e 94 d1 16 	call	0x2da2	; 0x2da2 <fputc>
    2266:	fa 94       	dec	r15
    2268:	f6 cf       	rjmp	.-20     	; 0x2256 <vfprintf+0x6b0>
    226a:	f6 01       	movw	r30, r12
    226c:	86 81       	ldd	r24, Z+6	; 0x06
    226e:	97 81       	ldd	r25, Z+7	; 0x07
    2270:	26 c0       	rjmp	.+76     	; 0x22be <vfprintf+0x718>
    2272:	8f ef       	ldi	r24, 0xFF	; 255
    2274:	9f ef       	ldi	r25, 0xFF	; 255
    2276:	23 c0       	rjmp	.+70     	; 0x22be <vfprintf+0x718>
    2278:	b6 01       	movw	r22, r12
    227a:	80 e2       	ldi	r24, 0x20	; 32
    227c:	90 e0       	ldi	r25, 0x00	; 0
    227e:	0e 94 d1 16 	call	0x2da2	; 0x2da2 <fputc>
    2282:	fa 94       	dec	r15
    2284:	f1 10       	cpse	r15, r1
    2286:	f8 cf       	rjmp	.-16     	; 0x2278 <vfprintf+0x6d2>
    2288:	d9 cf       	rjmp	.-78     	; 0x223c <vfprintf+0x696>
    228a:	f1 2c       	mov	r15, r1
    228c:	b6 01       	movw	r22, r12
    228e:	82 2d       	mov	r24, r2
    2290:	90 e0       	ldi	r25, 0x00	; 0
    2292:	0e 94 d1 16 	call	0x2da2	; 0x2da2 <fputc>
    2296:	d4 cf       	rjmp	.-88     	; 0x2240 <vfprintf+0x69a>
    2298:	02 e1       	ldi	r16, 0x12	; 18
    229a:	11 e0       	ldi	r17, 0x01	; 1
    229c:	d5 cf       	rjmp	.-86     	; 0x2248 <vfprintf+0x6a2>
    229e:	31 10       	cpse	r3, r1
    22a0:	80 52       	subi	r24, 0x20	; 32
    22a2:	b6 01       	movw	r22, r12
    22a4:	90 e0       	ldi	r25, 0x00	; 0
    22a6:	0e 94 d1 16 	call	0x2da2	; 0x2da2 <fputc>
    22aa:	0f 5f       	subi	r16, 0xFF	; 255
    22ac:	1f 4f       	sbci	r17, 0xFF	; 255
    22ae:	cf cf       	rjmp	.-98     	; 0x224e <vfprintf+0x6a8>
    22b0:	23 e0       	ldi	r18, 0x03	; 3
    22b2:	2f 15       	cp	r18, r15
    22b4:	10 f4       	brcc	.+4      	; 0x22ba <vfprintf+0x714>
    22b6:	83 e0       	ldi	r24, 0x03	; 3
    22b8:	be cf       	rjmp	.-132    	; 0x2236 <vfprintf+0x690>
    22ba:	f1 2c       	mov	r15, r1
    22bc:	c1 cf       	rjmp	.-126    	; 0x2240 <vfprintf+0x69a>
    22be:	63 96       	adiw	r28, 0x13	; 19
    22c0:	0f b6       	in	r0, 0x3f	; 63
    22c2:	f8 94       	cli
    22c4:	de bf       	out	0x3e, r29	; 62
    22c6:	0f be       	out	0x3f, r0	; 63
    22c8:	cd bf       	out	0x3d, r28	; 61
    22ca:	df 91       	pop	r29
    22cc:	cf 91       	pop	r28
    22ce:	1f 91       	pop	r17
    22d0:	0f 91       	pop	r16
    22d2:	ff 90       	pop	r15
    22d4:	ef 90       	pop	r14
    22d6:	df 90       	pop	r13
    22d8:	cf 90       	pop	r12
    22da:	bf 90       	pop	r11
    22dc:	af 90       	pop	r10
    22de:	9f 90       	pop	r9
    22e0:	8f 90       	pop	r8
    22e2:	7f 90       	pop	r7
    22e4:	6f 90       	pop	r6
    22e6:	5f 90       	pop	r5
    22e8:	4f 90       	pop	r4
    22ea:	3f 90       	pop	r3
    22ec:	2f 90       	pop	r2
    22ee:	08 95       	ret

000022f0 <__mulsi3>:
    22f0:	db 01       	movw	r26, r22
    22f2:	8f 93       	push	r24
    22f4:	9f 93       	push	r25
    22f6:	0e 94 be 11 	call	0x237c	; 0x237c <__muluhisi3>
    22fa:	bf 91       	pop	r27
    22fc:	af 91       	pop	r26
    22fe:	a2 9f       	mul	r26, r18
    2300:	80 0d       	add	r24, r0
    2302:	91 1d       	adc	r25, r1
    2304:	a3 9f       	mul	r26, r19
    2306:	90 0d       	add	r25, r0
    2308:	b2 9f       	mul	r27, r18
    230a:	90 0d       	add	r25, r0
    230c:	11 24       	eor	r1, r1
    230e:	08 95       	ret

00002310 <__udivmodhi4>:
    2310:	aa 1b       	sub	r26, r26
    2312:	bb 1b       	sub	r27, r27
    2314:	51 e1       	ldi	r21, 0x11	; 17
    2316:	07 c0       	rjmp	.+14     	; 0x2326 <__udivmodhi4_ep>

00002318 <__udivmodhi4_loop>:
    2318:	aa 1f       	adc	r26, r26
    231a:	bb 1f       	adc	r27, r27
    231c:	a6 17       	cp	r26, r22
    231e:	b7 07       	cpc	r27, r23
    2320:	10 f0       	brcs	.+4      	; 0x2326 <__udivmodhi4_ep>
    2322:	a6 1b       	sub	r26, r22
    2324:	b7 0b       	sbc	r27, r23

00002326 <__udivmodhi4_ep>:
    2326:	88 1f       	adc	r24, r24
    2328:	99 1f       	adc	r25, r25
    232a:	5a 95       	dec	r21
    232c:	a9 f7       	brne	.-22     	; 0x2318 <__udivmodhi4_loop>
    232e:	80 95       	com	r24
    2330:	90 95       	com	r25
    2332:	bc 01       	movw	r22, r24
    2334:	cd 01       	movw	r24, r26
    2336:	08 95       	ret

00002338 <__udivmodsi4>:
    2338:	a1 e2       	ldi	r26, 0x21	; 33
    233a:	1a 2e       	mov	r1, r26
    233c:	aa 1b       	sub	r26, r26
    233e:	bb 1b       	sub	r27, r27
    2340:	fd 01       	movw	r30, r26
    2342:	0d c0       	rjmp	.+26     	; 0x235e <__udivmodsi4_ep>

00002344 <__udivmodsi4_loop>:
    2344:	aa 1f       	adc	r26, r26
    2346:	bb 1f       	adc	r27, r27
    2348:	ee 1f       	adc	r30, r30
    234a:	ff 1f       	adc	r31, r31
    234c:	a2 17       	cp	r26, r18
    234e:	b3 07       	cpc	r27, r19
    2350:	e4 07       	cpc	r30, r20
    2352:	f5 07       	cpc	r31, r21
    2354:	20 f0       	brcs	.+8      	; 0x235e <__udivmodsi4_ep>
    2356:	a2 1b       	sub	r26, r18
    2358:	b3 0b       	sbc	r27, r19
    235a:	e4 0b       	sbc	r30, r20
    235c:	f5 0b       	sbc	r31, r21

0000235e <__udivmodsi4_ep>:
    235e:	66 1f       	adc	r22, r22
    2360:	77 1f       	adc	r23, r23
    2362:	88 1f       	adc	r24, r24
    2364:	99 1f       	adc	r25, r25
    2366:	1a 94       	dec	r1
    2368:	69 f7       	brne	.-38     	; 0x2344 <__udivmodsi4_loop>
    236a:	60 95       	com	r22
    236c:	70 95       	com	r23
    236e:	80 95       	com	r24
    2370:	90 95       	com	r25
    2372:	9b 01       	movw	r18, r22
    2374:	ac 01       	movw	r20, r24
    2376:	bd 01       	movw	r22, r26
    2378:	cf 01       	movw	r24, r30
    237a:	08 95       	ret

0000237c <__muluhisi3>:
    237c:	0e 94 ff 11 	call	0x23fe	; 0x23fe <__umulhisi3>
    2380:	a5 9f       	mul	r26, r21
    2382:	90 0d       	add	r25, r0
    2384:	b4 9f       	mul	r27, r20
    2386:	90 0d       	add	r25, r0
    2388:	a4 9f       	mul	r26, r20
    238a:	80 0d       	add	r24, r0
    238c:	91 1d       	adc	r25, r1
    238e:	11 24       	eor	r1, r1
    2390:	08 95       	ret

00002392 <__mulshisi3>:
    2392:	b7 ff       	sbrs	r27, 7
    2394:	0c 94 be 11 	jmp	0x237c	; 0x237c <__muluhisi3>

00002398 <__mulohisi3>:
    2398:	0e 94 be 11 	call	0x237c	; 0x237c <__muluhisi3>
    239c:	82 1b       	sub	r24, r18
    239e:	93 0b       	sbc	r25, r19
    23a0:	08 95       	ret

000023a2 <__ashldi3>:
    23a2:	0f 93       	push	r16
    23a4:	08 30       	cpi	r16, 0x08	; 8
    23a6:	90 f0       	brcs	.+36     	; 0x23cc <__ashldi3+0x2a>
    23a8:	98 2f       	mov	r25, r24
    23aa:	87 2f       	mov	r24, r23
    23ac:	76 2f       	mov	r23, r22
    23ae:	65 2f       	mov	r22, r21
    23b0:	54 2f       	mov	r21, r20
    23b2:	43 2f       	mov	r20, r19
    23b4:	32 2f       	mov	r19, r18
    23b6:	22 27       	eor	r18, r18
    23b8:	08 50       	subi	r16, 0x08	; 8
    23ba:	f4 cf       	rjmp	.-24     	; 0x23a4 <__ashldi3+0x2>
    23bc:	22 0f       	add	r18, r18
    23be:	33 1f       	adc	r19, r19
    23c0:	44 1f       	adc	r20, r20
    23c2:	55 1f       	adc	r21, r21
    23c4:	66 1f       	adc	r22, r22
    23c6:	77 1f       	adc	r23, r23
    23c8:	88 1f       	adc	r24, r24
    23ca:	99 1f       	adc	r25, r25
    23cc:	0a 95       	dec	r16
    23ce:	b2 f7       	brpl	.-20     	; 0x23bc <__ashldi3+0x1a>
    23d0:	0f 91       	pop	r16
    23d2:	08 95       	ret

000023d4 <__cmpdi2>:
    23d4:	2a 15       	cp	r18, r10
    23d6:	3b 05       	cpc	r19, r11
    23d8:	4c 05       	cpc	r20, r12
    23da:	5d 05       	cpc	r21, r13
    23dc:	6e 05       	cpc	r22, r14
    23de:	7f 05       	cpc	r23, r15
    23e0:	80 07       	cpc	r24, r16
    23e2:	91 07       	cpc	r25, r17
    23e4:	08 95       	ret

000023e6 <__cmpdi2_s8>:
    23e6:	00 24       	eor	r0, r0
    23e8:	a7 fd       	sbrc	r26, 7
    23ea:	00 94       	com	r0
    23ec:	2a 17       	cp	r18, r26
    23ee:	30 05       	cpc	r19, r0
    23f0:	40 05       	cpc	r20, r0
    23f2:	50 05       	cpc	r21, r0
    23f4:	60 05       	cpc	r22, r0
    23f6:	70 05       	cpc	r23, r0
    23f8:	80 05       	cpc	r24, r0
    23fa:	90 05       	cpc	r25, r0
    23fc:	08 95       	ret

000023fe <__umulhisi3>:
    23fe:	a2 9f       	mul	r26, r18
    2400:	b0 01       	movw	r22, r0
    2402:	b3 9f       	mul	r27, r19
    2404:	c0 01       	movw	r24, r0
    2406:	a3 9f       	mul	r26, r19
    2408:	70 0d       	add	r23, r0
    240a:	81 1d       	adc	r24, r1
    240c:	11 24       	eor	r1, r1
    240e:	91 1d       	adc	r25, r1
    2410:	b2 9f       	mul	r27, r18
    2412:	70 0d       	add	r23, r0
    2414:	81 1d       	adc	r24, r1
    2416:	11 24       	eor	r1, r1
    2418:	91 1d       	adc	r25, r1
    241a:	08 95       	ret

0000241c <__subsf3>:
    241c:	50 58       	subi	r21, 0x80	; 128

0000241e <__addsf3>:
    241e:	bb 27       	eor	r27, r27
    2420:	aa 27       	eor	r26, r26
    2422:	0e 94 26 12 	call	0x244c	; 0x244c <__addsf3x>
    2426:	0c 94 6a 13 	jmp	0x26d4	; 0x26d4 <__fp_round>
    242a:	0e 94 5c 13 	call	0x26b8	; 0x26b8 <__fp_pscA>
    242e:	38 f0       	brcs	.+14     	; 0x243e <__addsf3+0x20>
    2430:	0e 94 63 13 	call	0x26c6	; 0x26c6 <__fp_pscB>
    2434:	20 f0       	brcs	.+8      	; 0x243e <__addsf3+0x20>
    2436:	39 f4       	brne	.+14     	; 0x2446 <__addsf3+0x28>
    2438:	9f 3f       	cpi	r25, 0xFF	; 255
    243a:	19 f4       	brne	.+6      	; 0x2442 <__addsf3+0x24>
    243c:	26 f4       	brtc	.+8      	; 0x2446 <__addsf3+0x28>
    243e:	0c 94 59 13 	jmp	0x26b2	; 0x26b2 <__fp_nan>
    2442:	0e f4       	brtc	.+2      	; 0x2446 <__addsf3+0x28>
    2444:	e0 95       	com	r30
    2446:	e7 fb       	bst	r30, 7
    2448:	0c 94 53 13 	jmp	0x26a6	; 0x26a6 <__fp_inf>

0000244c <__addsf3x>:
    244c:	e9 2f       	mov	r30, r25
    244e:	0e 94 7b 13 	call	0x26f6	; 0x26f6 <__fp_split3>
    2452:	58 f3       	brcs	.-42     	; 0x242a <__addsf3+0xc>
    2454:	ba 17       	cp	r27, r26
    2456:	62 07       	cpc	r22, r18
    2458:	73 07       	cpc	r23, r19
    245a:	84 07       	cpc	r24, r20
    245c:	95 07       	cpc	r25, r21
    245e:	20 f0       	brcs	.+8      	; 0x2468 <__addsf3x+0x1c>
    2460:	79 f4       	brne	.+30     	; 0x2480 <__addsf3x+0x34>
    2462:	a6 f5       	brtc	.+104    	; 0x24cc <__addsf3x+0x80>
    2464:	0c 94 9d 13 	jmp	0x273a	; 0x273a <__fp_zero>
    2468:	0e f4       	brtc	.+2      	; 0x246c <__addsf3x+0x20>
    246a:	e0 95       	com	r30
    246c:	0b 2e       	mov	r0, r27
    246e:	ba 2f       	mov	r27, r26
    2470:	a0 2d       	mov	r26, r0
    2472:	0b 01       	movw	r0, r22
    2474:	b9 01       	movw	r22, r18
    2476:	90 01       	movw	r18, r0
    2478:	0c 01       	movw	r0, r24
    247a:	ca 01       	movw	r24, r20
    247c:	a0 01       	movw	r20, r0
    247e:	11 24       	eor	r1, r1
    2480:	ff 27       	eor	r31, r31
    2482:	59 1b       	sub	r21, r25
    2484:	99 f0       	breq	.+38     	; 0x24ac <__addsf3x+0x60>
    2486:	59 3f       	cpi	r21, 0xF9	; 249
    2488:	50 f4       	brcc	.+20     	; 0x249e <__addsf3x+0x52>
    248a:	50 3e       	cpi	r21, 0xE0	; 224
    248c:	68 f1       	brcs	.+90     	; 0x24e8 <__addsf3x+0x9c>
    248e:	1a 16       	cp	r1, r26
    2490:	f0 40       	sbci	r31, 0x00	; 0
    2492:	a2 2f       	mov	r26, r18
    2494:	23 2f       	mov	r18, r19
    2496:	34 2f       	mov	r19, r20
    2498:	44 27       	eor	r20, r20
    249a:	58 5f       	subi	r21, 0xF8	; 248
    249c:	f3 cf       	rjmp	.-26     	; 0x2484 <__addsf3x+0x38>
    249e:	46 95       	lsr	r20
    24a0:	37 95       	ror	r19
    24a2:	27 95       	ror	r18
    24a4:	a7 95       	ror	r26
    24a6:	f0 40       	sbci	r31, 0x00	; 0
    24a8:	53 95       	inc	r21
    24aa:	c9 f7       	brne	.-14     	; 0x249e <__addsf3x+0x52>
    24ac:	7e f4       	brtc	.+30     	; 0x24cc <__addsf3x+0x80>
    24ae:	1f 16       	cp	r1, r31
    24b0:	ba 0b       	sbc	r27, r26
    24b2:	62 0b       	sbc	r22, r18
    24b4:	73 0b       	sbc	r23, r19
    24b6:	84 0b       	sbc	r24, r20
    24b8:	ba f0       	brmi	.+46     	; 0x24e8 <__addsf3x+0x9c>
    24ba:	91 50       	subi	r25, 0x01	; 1
    24bc:	a1 f0       	breq	.+40     	; 0x24e6 <__addsf3x+0x9a>
    24be:	ff 0f       	add	r31, r31
    24c0:	bb 1f       	adc	r27, r27
    24c2:	66 1f       	adc	r22, r22
    24c4:	77 1f       	adc	r23, r23
    24c6:	88 1f       	adc	r24, r24
    24c8:	c2 f7       	brpl	.-16     	; 0x24ba <__addsf3x+0x6e>
    24ca:	0e c0       	rjmp	.+28     	; 0x24e8 <__addsf3x+0x9c>
    24cc:	ba 0f       	add	r27, r26
    24ce:	62 1f       	adc	r22, r18
    24d0:	73 1f       	adc	r23, r19
    24d2:	84 1f       	adc	r24, r20
    24d4:	48 f4       	brcc	.+18     	; 0x24e8 <__addsf3x+0x9c>
    24d6:	87 95       	ror	r24
    24d8:	77 95       	ror	r23
    24da:	67 95       	ror	r22
    24dc:	b7 95       	ror	r27
    24de:	f7 95       	ror	r31
    24e0:	9e 3f       	cpi	r25, 0xFE	; 254
    24e2:	08 f0       	brcs	.+2      	; 0x24e6 <__addsf3x+0x9a>
    24e4:	b0 cf       	rjmp	.-160    	; 0x2446 <__addsf3+0x28>
    24e6:	93 95       	inc	r25
    24e8:	88 0f       	add	r24, r24
    24ea:	08 f0       	brcs	.+2      	; 0x24ee <__addsf3x+0xa2>
    24ec:	99 27       	eor	r25, r25
    24ee:	ee 0f       	add	r30, r30
    24f0:	97 95       	ror	r25
    24f2:	87 95       	ror	r24
    24f4:	08 95       	ret

000024f6 <__cmpsf2>:
    24f6:	0e 94 2f 13 	call	0x265e	; 0x265e <__fp_cmp>
    24fa:	08 f4       	brcc	.+2      	; 0x24fe <__cmpsf2+0x8>
    24fc:	81 e0       	ldi	r24, 0x01	; 1
    24fe:	08 95       	ret

00002500 <__divsf3>:
    2500:	0e 94 94 12 	call	0x2528	; 0x2528 <__divsf3x>
    2504:	0c 94 6a 13 	jmp	0x26d4	; 0x26d4 <__fp_round>
    2508:	0e 94 63 13 	call	0x26c6	; 0x26c6 <__fp_pscB>
    250c:	58 f0       	brcs	.+22     	; 0x2524 <__divsf3+0x24>
    250e:	0e 94 5c 13 	call	0x26b8	; 0x26b8 <__fp_pscA>
    2512:	40 f0       	brcs	.+16     	; 0x2524 <__divsf3+0x24>
    2514:	29 f4       	brne	.+10     	; 0x2520 <__divsf3+0x20>
    2516:	5f 3f       	cpi	r21, 0xFF	; 255
    2518:	29 f0       	breq	.+10     	; 0x2524 <__divsf3+0x24>
    251a:	0c 94 53 13 	jmp	0x26a6	; 0x26a6 <__fp_inf>
    251e:	51 11       	cpse	r21, r1
    2520:	0c 94 9e 13 	jmp	0x273c	; 0x273c <__fp_szero>
    2524:	0c 94 59 13 	jmp	0x26b2	; 0x26b2 <__fp_nan>

00002528 <__divsf3x>:
    2528:	0e 94 7b 13 	call	0x26f6	; 0x26f6 <__fp_split3>
    252c:	68 f3       	brcs	.-38     	; 0x2508 <__divsf3+0x8>

0000252e <__divsf3_pse>:
    252e:	99 23       	and	r25, r25
    2530:	b1 f3       	breq	.-20     	; 0x251e <__divsf3+0x1e>
    2532:	55 23       	and	r21, r21
    2534:	91 f3       	breq	.-28     	; 0x251a <__divsf3+0x1a>
    2536:	95 1b       	sub	r25, r21
    2538:	55 0b       	sbc	r21, r21
    253a:	bb 27       	eor	r27, r27
    253c:	aa 27       	eor	r26, r26
    253e:	62 17       	cp	r22, r18
    2540:	73 07       	cpc	r23, r19
    2542:	84 07       	cpc	r24, r20
    2544:	38 f0       	brcs	.+14     	; 0x2554 <__divsf3_pse+0x26>
    2546:	9f 5f       	subi	r25, 0xFF	; 255
    2548:	5f 4f       	sbci	r21, 0xFF	; 255
    254a:	22 0f       	add	r18, r18
    254c:	33 1f       	adc	r19, r19
    254e:	44 1f       	adc	r20, r20
    2550:	aa 1f       	adc	r26, r26
    2552:	a9 f3       	breq	.-22     	; 0x253e <__divsf3_pse+0x10>
    2554:	35 d0       	rcall	.+106    	; 0x25c0 <__divsf3_pse+0x92>
    2556:	0e 2e       	mov	r0, r30
    2558:	3a f0       	brmi	.+14     	; 0x2568 <__divsf3_pse+0x3a>
    255a:	e0 e8       	ldi	r30, 0x80	; 128
    255c:	32 d0       	rcall	.+100    	; 0x25c2 <__divsf3_pse+0x94>
    255e:	91 50       	subi	r25, 0x01	; 1
    2560:	50 40       	sbci	r21, 0x00	; 0
    2562:	e6 95       	lsr	r30
    2564:	00 1c       	adc	r0, r0
    2566:	ca f7       	brpl	.-14     	; 0x255a <__divsf3_pse+0x2c>
    2568:	2b d0       	rcall	.+86     	; 0x25c0 <__divsf3_pse+0x92>
    256a:	fe 2f       	mov	r31, r30
    256c:	29 d0       	rcall	.+82     	; 0x25c0 <__divsf3_pse+0x92>
    256e:	66 0f       	add	r22, r22
    2570:	77 1f       	adc	r23, r23
    2572:	88 1f       	adc	r24, r24
    2574:	bb 1f       	adc	r27, r27
    2576:	26 17       	cp	r18, r22
    2578:	37 07       	cpc	r19, r23
    257a:	48 07       	cpc	r20, r24
    257c:	ab 07       	cpc	r26, r27
    257e:	b0 e8       	ldi	r27, 0x80	; 128
    2580:	09 f0       	breq	.+2      	; 0x2584 <__divsf3_pse+0x56>
    2582:	bb 0b       	sbc	r27, r27
    2584:	80 2d       	mov	r24, r0
    2586:	bf 01       	movw	r22, r30
    2588:	ff 27       	eor	r31, r31
    258a:	93 58       	subi	r25, 0x83	; 131
    258c:	5f 4f       	sbci	r21, 0xFF	; 255
    258e:	3a f0       	brmi	.+14     	; 0x259e <__divsf3_pse+0x70>
    2590:	9e 3f       	cpi	r25, 0xFE	; 254
    2592:	51 05       	cpc	r21, r1
    2594:	78 f0       	brcs	.+30     	; 0x25b4 <__divsf3_pse+0x86>
    2596:	0c 94 53 13 	jmp	0x26a6	; 0x26a6 <__fp_inf>
    259a:	0c 94 9e 13 	jmp	0x273c	; 0x273c <__fp_szero>
    259e:	5f 3f       	cpi	r21, 0xFF	; 255
    25a0:	e4 f3       	brlt	.-8      	; 0x259a <__divsf3_pse+0x6c>
    25a2:	98 3e       	cpi	r25, 0xE8	; 232
    25a4:	d4 f3       	brlt	.-12     	; 0x259a <__divsf3_pse+0x6c>
    25a6:	86 95       	lsr	r24
    25a8:	77 95       	ror	r23
    25aa:	67 95       	ror	r22
    25ac:	b7 95       	ror	r27
    25ae:	f7 95       	ror	r31
    25b0:	9f 5f       	subi	r25, 0xFF	; 255
    25b2:	c9 f7       	brne	.-14     	; 0x25a6 <__divsf3_pse+0x78>
    25b4:	88 0f       	add	r24, r24
    25b6:	91 1d       	adc	r25, r1
    25b8:	96 95       	lsr	r25
    25ba:	87 95       	ror	r24
    25bc:	97 f9       	bld	r25, 7
    25be:	08 95       	ret
    25c0:	e1 e0       	ldi	r30, 0x01	; 1
    25c2:	66 0f       	add	r22, r22
    25c4:	77 1f       	adc	r23, r23
    25c6:	88 1f       	adc	r24, r24
    25c8:	bb 1f       	adc	r27, r27
    25ca:	62 17       	cp	r22, r18
    25cc:	73 07       	cpc	r23, r19
    25ce:	84 07       	cpc	r24, r20
    25d0:	ba 07       	cpc	r27, r26
    25d2:	20 f0       	brcs	.+8      	; 0x25dc <__divsf3_pse+0xae>
    25d4:	62 1b       	sub	r22, r18
    25d6:	73 0b       	sbc	r23, r19
    25d8:	84 0b       	sbc	r24, r20
    25da:	ba 0b       	sbc	r27, r26
    25dc:	ee 1f       	adc	r30, r30
    25de:	88 f7       	brcc	.-30     	; 0x25c2 <__divsf3_pse+0x94>
    25e0:	e0 95       	com	r30
    25e2:	08 95       	ret

000025e4 <__floatunsisf>:
    25e4:	e8 94       	clt
    25e6:	09 c0       	rjmp	.+18     	; 0x25fa <__floatsisf+0x12>

000025e8 <__floatsisf>:
    25e8:	97 fb       	bst	r25, 7
    25ea:	3e f4       	brtc	.+14     	; 0x25fa <__floatsisf+0x12>
    25ec:	90 95       	com	r25
    25ee:	80 95       	com	r24
    25f0:	70 95       	com	r23
    25f2:	61 95       	neg	r22
    25f4:	7f 4f       	sbci	r23, 0xFF	; 255
    25f6:	8f 4f       	sbci	r24, 0xFF	; 255
    25f8:	9f 4f       	sbci	r25, 0xFF	; 255
    25fa:	99 23       	and	r25, r25
    25fc:	a9 f0       	breq	.+42     	; 0x2628 <__floatsisf+0x40>
    25fe:	f9 2f       	mov	r31, r25
    2600:	96 e9       	ldi	r25, 0x96	; 150
    2602:	bb 27       	eor	r27, r27
    2604:	93 95       	inc	r25
    2606:	f6 95       	lsr	r31
    2608:	87 95       	ror	r24
    260a:	77 95       	ror	r23
    260c:	67 95       	ror	r22
    260e:	b7 95       	ror	r27
    2610:	f1 11       	cpse	r31, r1
    2612:	f8 cf       	rjmp	.-16     	; 0x2604 <__floatsisf+0x1c>
    2614:	fa f4       	brpl	.+62     	; 0x2654 <__floatsisf+0x6c>
    2616:	bb 0f       	add	r27, r27
    2618:	11 f4       	brne	.+4      	; 0x261e <__floatsisf+0x36>
    261a:	60 ff       	sbrs	r22, 0
    261c:	1b c0       	rjmp	.+54     	; 0x2654 <__floatsisf+0x6c>
    261e:	6f 5f       	subi	r22, 0xFF	; 255
    2620:	7f 4f       	sbci	r23, 0xFF	; 255
    2622:	8f 4f       	sbci	r24, 0xFF	; 255
    2624:	9f 4f       	sbci	r25, 0xFF	; 255
    2626:	16 c0       	rjmp	.+44     	; 0x2654 <__floatsisf+0x6c>
    2628:	88 23       	and	r24, r24
    262a:	11 f0       	breq	.+4      	; 0x2630 <__floatsisf+0x48>
    262c:	96 e9       	ldi	r25, 0x96	; 150
    262e:	11 c0       	rjmp	.+34     	; 0x2652 <__floatsisf+0x6a>
    2630:	77 23       	and	r23, r23
    2632:	21 f0       	breq	.+8      	; 0x263c <__floatsisf+0x54>
    2634:	9e e8       	ldi	r25, 0x8E	; 142
    2636:	87 2f       	mov	r24, r23
    2638:	76 2f       	mov	r23, r22
    263a:	05 c0       	rjmp	.+10     	; 0x2646 <__floatsisf+0x5e>
    263c:	66 23       	and	r22, r22
    263e:	71 f0       	breq	.+28     	; 0x265c <__floatsisf+0x74>
    2640:	96 e8       	ldi	r25, 0x86	; 134
    2642:	86 2f       	mov	r24, r22
    2644:	70 e0       	ldi	r23, 0x00	; 0
    2646:	60 e0       	ldi	r22, 0x00	; 0
    2648:	2a f0       	brmi	.+10     	; 0x2654 <__floatsisf+0x6c>
    264a:	9a 95       	dec	r25
    264c:	66 0f       	add	r22, r22
    264e:	77 1f       	adc	r23, r23
    2650:	88 1f       	adc	r24, r24
    2652:	da f7       	brpl	.-10     	; 0x264a <__floatsisf+0x62>
    2654:	88 0f       	add	r24, r24
    2656:	96 95       	lsr	r25
    2658:	87 95       	ror	r24
    265a:	97 f9       	bld	r25, 7
    265c:	08 95       	ret

0000265e <__fp_cmp>:
    265e:	99 0f       	add	r25, r25
    2660:	00 08       	sbc	r0, r0
    2662:	55 0f       	add	r21, r21
    2664:	aa 0b       	sbc	r26, r26
    2666:	e0 e8       	ldi	r30, 0x80	; 128
    2668:	fe ef       	ldi	r31, 0xFE	; 254
    266a:	16 16       	cp	r1, r22
    266c:	17 06       	cpc	r1, r23
    266e:	e8 07       	cpc	r30, r24
    2670:	f9 07       	cpc	r31, r25
    2672:	c0 f0       	brcs	.+48     	; 0x26a4 <__fp_cmp+0x46>
    2674:	12 16       	cp	r1, r18
    2676:	13 06       	cpc	r1, r19
    2678:	e4 07       	cpc	r30, r20
    267a:	f5 07       	cpc	r31, r21
    267c:	98 f0       	brcs	.+38     	; 0x26a4 <__fp_cmp+0x46>
    267e:	62 1b       	sub	r22, r18
    2680:	73 0b       	sbc	r23, r19
    2682:	84 0b       	sbc	r24, r20
    2684:	95 0b       	sbc	r25, r21
    2686:	39 f4       	brne	.+14     	; 0x2696 <__fp_cmp+0x38>
    2688:	0a 26       	eor	r0, r26
    268a:	61 f0       	breq	.+24     	; 0x26a4 <__fp_cmp+0x46>
    268c:	23 2b       	or	r18, r19
    268e:	24 2b       	or	r18, r20
    2690:	25 2b       	or	r18, r21
    2692:	21 f4       	brne	.+8      	; 0x269c <__fp_cmp+0x3e>
    2694:	08 95       	ret
    2696:	0a 26       	eor	r0, r26
    2698:	09 f4       	brne	.+2      	; 0x269c <__fp_cmp+0x3e>
    269a:	a1 40       	sbci	r26, 0x01	; 1
    269c:	a6 95       	lsr	r26
    269e:	8f ef       	ldi	r24, 0xFF	; 255
    26a0:	81 1d       	adc	r24, r1
    26a2:	81 1d       	adc	r24, r1
    26a4:	08 95       	ret

000026a6 <__fp_inf>:
    26a6:	97 f9       	bld	r25, 7
    26a8:	9f 67       	ori	r25, 0x7F	; 127
    26aa:	80 e8       	ldi	r24, 0x80	; 128
    26ac:	70 e0       	ldi	r23, 0x00	; 0
    26ae:	60 e0       	ldi	r22, 0x00	; 0
    26b0:	08 95       	ret

000026b2 <__fp_nan>:
    26b2:	9f ef       	ldi	r25, 0xFF	; 255
    26b4:	80 ec       	ldi	r24, 0xC0	; 192
    26b6:	08 95       	ret

000026b8 <__fp_pscA>:
    26b8:	00 24       	eor	r0, r0
    26ba:	0a 94       	dec	r0
    26bc:	16 16       	cp	r1, r22
    26be:	17 06       	cpc	r1, r23
    26c0:	18 06       	cpc	r1, r24
    26c2:	09 06       	cpc	r0, r25
    26c4:	08 95       	ret

000026c6 <__fp_pscB>:
    26c6:	00 24       	eor	r0, r0
    26c8:	0a 94       	dec	r0
    26ca:	12 16       	cp	r1, r18
    26cc:	13 06       	cpc	r1, r19
    26ce:	14 06       	cpc	r1, r20
    26d0:	05 06       	cpc	r0, r21
    26d2:	08 95       	ret

000026d4 <__fp_round>:
    26d4:	09 2e       	mov	r0, r25
    26d6:	03 94       	inc	r0
    26d8:	00 0c       	add	r0, r0
    26da:	11 f4       	brne	.+4      	; 0x26e0 <__fp_round+0xc>
    26dc:	88 23       	and	r24, r24
    26de:	52 f0       	brmi	.+20     	; 0x26f4 <__fp_round+0x20>
    26e0:	bb 0f       	add	r27, r27
    26e2:	40 f4       	brcc	.+16     	; 0x26f4 <__fp_round+0x20>
    26e4:	bf 2b       	or	r27, r31
    26e6:	11 f4       	brne	.+4      	; 0x26ec <__fp_round+0x18>
    26e8:	60 ff       	sbrs	r22, 0
    26ea:	04 c0       	rjmp	.+8      	; 0x26f4 <__fp_round+0x20>
    26ec:	6f 5f       	subi	r22, 0xFF	; 255
    26ee:	7f 4f       	sbci	r23, 0xFF	; 255
    26f0:	8f 4f       	sbci	r24, 0xFF	; 255
    26f2:	9f 4f       	sbci	r25, 0xFF	; 255
    26f4:	08 95       	ret

000026f6 <__fp_split3>:
    26f6:	57 fd       	sbrc	r21, 7
    26f8:	90 58       	subi	r25, 0x80	; 128
    26fa:	44 0f       	add	r20, r20
    26fc:	55 1f       	adc	r21, r21
    26fe:	59 f0       	breq	.+22     	; 0x2716 <__fp_splitA+0x10>
    2700:	5f 3f       	cpi	r21, 0xFF	; 255
    2702:	71 f0       	breq	.+28     	; 0x2720 <__fp_splitA+0x1a>
    2704:	47 95       	ror	r20

00002706 <__fp_splitA>:
    2706:	88 0f       	add	r24, r24
    2708:	97 fb       	bst	r25, 7
    270a:	99 1f       	adc	r25, r25
    270c:	61 f0       	breq	.+24     	; 0x2726 <__fp_splitA+0x20>
    270e:	9f 3f       	cpi	r25, 0xFF	; 255
    2710:	79 f0       	breq	.+30     	; 0x2730 <__fp_splitA+0x2a>
    2712:	87 95       	ror	r24
    2714:	08 95       	ret
    2716:	12 16       	cp	r1, r18
    2718:	13 06       	cpc	r1, r19
    271a:	14 06       	cpc	r1, r20
    271c:	55 1f       	adc	r21, r21
    271e:	f2 cf       	rjmp	.-28     	; 0x2704 <__fp_split3+0xe>
    2720:	46 95       	lsr	r20
    2722:	f1 df       	rcall	.-30     	; 0x2706 <__fp_splitA>
    2724:	08 c0       	rjmp	.+16     	; 0x2736 <__fp_splitA+0x30>
    2726:	16 16       	cp	r1, r22
    2728:	17 06       	cpc	r1, r23
    272a:	18 06       	cpc	r1, r24
    272c:	99 1f       	adc	r25, r25
    272e:	f1 cf       	rjmp	.-30     	; 0x2712 <__fp_splitA+0xc>
    2730:	86 95       	lsr	r24
    2732:	71 05       	cpc	r23, r1
    2734:	61 05       	cpc	r22, r1
    2736:	08 94       	sec
    2738:	08 95       	ret

0000273a <__fp_zero>:
    273a:	e8 94       	clt

0000273c <__fp_szero>:
    273c:	bb 27       	eor	r27, r27
    273e:	66 27       	eor	r22, r22
    2740:	77 27       	eor	r23, r23
    2742:	cb 01       	movw	r24, r22
    2744:	97 f9       	bld	r25, 7
    2746:	08 95       	ret

00002748 <__mulsf3>:
    2748:	0e 94 b7 13 	call	0x276e	; 0x276e <__mulsf3x>
    274c:	0c 94 6a 13 	jmp	0x26d4	; 0x26d4 <__fp_round>
    2750:	0e 94 5c 13 	call	0x26b8	; 0x26b8 <__fp_pscA>
    2754:	38 f0       	brcs	.+14     	; 0x2764 <__mulsf3+0x1c>
    2756:	0e 94 63 13 	call	0x26c6	; 0x26c6 <__fp_pscB>
    275a:	20 f0       	brcs	.+8      	; 0x2764 <__mulsf3+0x1c>
    275c:	95 23       	and	r25, r21
    275e:	11 f0       	breq	.+4      	; 0x2764 <__mulsf3+0x1c>
    2760:	0c 94 53 13 	jmp	0x26a6	; 0x26a6 <__fp_inf>
    2764:	0c 94 59 13 	jmp	0x26b2	; 0x26b2 <__fp_nan>
    2768:	11 24       	eor	r1, r1
    276a:	0c 94 9e 13 	jmp	0x273c	; 0x273c <__fp_szero>

0000276e <__mulsf3x>:
    276e:	0e 94 7b 13 	call	0x26f6	; 0x26f6 <__fp_split3>
    2772:	70 f3       	brcs	.-36     	; 0x2750 <__mulsf3+0x8>

00002774 <__mulsf3_pse>:
    2774:	95 9f       	mul	r25, r21
    2776:	c1 f3       	breq	.-16     	; 0x2768 <__mulsf3+0x20>
    2778:	95 0f       	add	r25, r21
    277a:	50 e0       	ldi	r21, 0x00	; 0
    277c:	55 1f       	adc	r21, r21
    277e:	62 9f       	mul	r22, r18
    2780:	f0 01       	movw	r30, r0
    2782:	72 9f       	mul	r23, r18
    2784:	bb 27       	eor	r27, r27
    2786:	f0 0d       	add	r31, r0
    2788:	b1 1d       	adc	r27, r1
    278a:	63 9f       	mul	r22, r19
    278c:	aa 27       	eor	r26, r26
    278e:	f0 0d       	add	r31, r0
    2790:	b1 1d       	adc	r27, r1
    2792:	aa 1f       	adc	r26, r26
    2794:	64 9f       	mul	r22, r20
    2796:	66 27       	eor	r22, r22
    2798:	b0 0d       	add	r27, r0
    279a:	a1 1d       	adc	r26, r1
    279c:	66 1f       	adc	r22, r22
    279e:	82 9f       	mul	r24, r18
    27a0:	22 27       	eor	r18, r18
    27a2:	b0 0d       	add	r27, r0
    27a4:	a1 1d       	adc	r26, r1
    27a6:	62 1f       	adc	r22, r18
    27a8:	73 9f       	mul	r23, r19
    27aa:	b0 0d       	add	r27, r0
    27ac:	a1 1d       	adc	r26, r1
    27ae:	62 1f       	adc	r22, r18
    27b0:	83 9f       	mul	r24, r19
    27b2:	a0 0d       	add	r26, r0
    27b4:	61 1d       	adc	r22, r1
    27b6:	22 1f       	adc	r18, r18
    27b8:	74 9f       	mul	r23, r20
    27ba:	33 27       	eor	r19, r19
    27bc:	a0 0d       	add	r26, r0
    27be:	61 1d       	adc	r22, r1
    27c0:	23 1f       	adc	r18, r19
    27c2:	84 9f       	mul	r24, r20
    27c4:	60 0d       	add	r22, r0
    27c6:	21 1d       	adc	r18, r1
    27c8:	82 2f       	mov	r24, r18
    27ca:	76 2f       	mov	r23, r22
    27cc:	6a 2f       	mov	r22, r26
    27ce:	11 24       	eor	r1, r1
    27d0:	9f 57       	subi	r25, 0x7F	; 127
    27d2:	50 40       	sbci	r21, 0x00	; 0
    27d4:	9a f0       	brmi	.+38     	; 0x27fc <__mulsf3_pse+0x88>
    27d6:	f1 f0       	breq	.+60     	; 0x2814 <__mulsf3_pse+0xa0>
    27d8:	88 23       	and	r24, r24
    27da:	4a f0       	brmi	.+18     	; 0x27ee <__mulsf3_pse+0x7a>
    27dc:	ee 0f       	add	r30, r30
    27de:	ff 1f       	adc	r31, r31
    27e0:	bb 1f       	adc	r27, r27
    27e2:	66 1f       	adc	r22, r22
    27e4:	77 1f       	adc	r23, r23
    27e6:	88 1f       	adc	r24, r24
    27e8:	91 50       	subi	r25, 0x01	; 1
    27ea:	50 40       	sbci	r21, 0x00	; 0
    27ec:	a9 f7       	brne	.-22     	; 0x27d8 <__mulsf3_pse+0x64>
    27ee:	9e 3f       	cpi	r25, 0xFE	; 254
    27f0:	51 05       	cpc	r21, r1
    27f2:	80 f0       	brcs	.+32     	; 0x2814 <__mulsf3_pse+0xa0>
    27f4:	0c 94 53 13 	jmp	0x26a6	; 0x26a6 <__fp_inf>
    27f8:	0c 94 9e 13 	jmp	0x273c	; 0x273c <__fp_szero>
    27fc:	5f 3f       	cpi	r21, 0xFF	; 255
    27fe:	e4 f3       	brlt	.-8      	; 0x27f8 <__mulsf3_pse+0x84>
    2800:	98 3e       	cpi	r25, 0xE8	; 232
    2802:	d4 f3       	brlt	.-12     	; 0x27f8 <__mulsf3_pse+0x84>
    2804:	86 95       	lsr	r24
    2806:	77 95       	ror	r23
    2808:	67 95       	ror	r22
    280a:	b7 95       	ror	r27
    280c:	f7 95       	ror	r31
    280e:	e7 95       	ror	r30
    2810:	9f 5f       	subi	r25, 0xFF	; 255
    2812:	c1 f7       	brne	.-16     	; 0x2804 <__mulsf3_pse+0x90>
    2814:	fe 2b       	or	r31, r30
    2816:	88 0f       	add	r24, r24
    2818:	91 1d       	adc	r25, r1
    281a:	96 95       	lsr	r25
    281c:	87 95       	ror	r24
    281e:	97 f9       	bld	r25, 7
    2820:	08 95       	ret

00002822 <pow>:
    2822:	fa 01       	movw	r30, r20
    2824:	ee 0f       	add	r30, r30
    2826:	ff 1f       	adc	r31, r31
    2828:	30 96       	adiw	r30, 0x00	; 0
    282a:	21 05       	cpc	r18, r1
    282c:	31 05       	cpc	r19, r1
    282e:	a1 f1       	breq	.+104    	; 0x2898 <pow+0x76>
    2830:	61 15       	cp	r22, r1
    2832:	71 05       	cpc	r23, r1
    2834:	61 f4       	brne	.+24     	; 0x284e <pow+0x2c>
    2836:	80 38       	cpi	r24, 0x80	; 128
    2838:	bf e3       	ldi	r27, 0x3F	; 63
    283a:	9b 07       	cpc	r25, r27
    283c:	49 f1       	breq	.+82     	; 0x2890 <pow+0x6e>
    283e:	68 94       	set
    2840:	90 38       	cpi	r25, 0x80	; 128
    2842:	81 05       	cpc	r24, r1
    2844:	61 f0       	breq	.+24     	; 0x285e <pow+0x3c>
    2846:	80 38       	cpi	r24, 0x80	; 128
    2848:	bf ef       	ldi	r27, 0xFF	; 255
    284a:	9b 07       	cpc	r25, r27
    284c:	41 f0       	breq	.+16     	; 0x285e <pow+0x3c>
    284e:	99 23       	and	r25, r25
    2850:	4a f5       	brpl	.+82     	; 0x28a4 <pow+0x82>
    2852:	ff 3f       	cpi	r31, 0xFF	; 255
    2854:	e1 05       	cpc	r30, r1
    2856:	31 05       	cpc	r19, r1
    2858:	21 05       	cpc	r18, r1
    285a:	19 f1       	breq	.+70     	; 0x28a2 <pow+0x80>
    285c:	e8 94       	clt
    285e:	08 94       	sec
    2860:	e7 95       	ror	r30
    2862:	d9 01       	movw	r26, r18
    2864:	aa 23       	and	r26, r26
    2866:	29 f4       	brne	.+10     	; 0x2872 <pow+0x50>
    2868:	ab 2f       	mov	r26, r27
    286a:	be 2f       	mov	r27, r30
    286c:	f8 5f       	subi	r31, 0xF8	; 248
    286e:	d0 f3       	brcs	.-12     	; 0x2864 <pow+0x42>
    2870:	10 c0       	rjmp	.+32     	; 0x2892 <pow+0x70>
    2872:	ff 5f       	subi	r31, 0xFF	; 255
    2874:	70 f4       	brcc	.+28     	; 0x2892 <pow+0x70>
    2876:	a6 95       	lsr	r26
    2878:	e0 f7       	brcc	.-8      	; 0x2872 <pow+0x50>
    287a:	f7 39       	cpi	r31, 0x97	; 151
    287c:	50 f0       	brcs	.+20     	; 0x2892 <pow+0x70>
    287e:	19 f0       	breq	.+6      	; 0x2886 <pow+0x64>
    2880:	ff 3a       	cpi	r31, 0xAF	; 175
    2882:	38 f4       	brcc	.+14     	; 0x2892 <pow+0x70>
    2884:	9f 77       	andi	r25, 0x7F	; 127
    2886:	9f 93       	push	r25
    2888:	0d d0       	rcall	.+26     	; 0x28a4 <pow+0x82>
    288a:	0f 90       	pop	r0
    288c:	07 fc       	sbrc	r0, 7
    288e:	90 58       	subi	r25, 0x80	; 128
    2890:	08 95       	ret
    2892:	46 f0       	brts	.+16     	; 0x28a4 <pow+0x82>
    2894:	0c 94 59 13 	jmp	0x26b2	; 0x26b2 <__fp_nan>
    2898:	60 e0       	ldi	r22, 0x00	; 0
    289a:	70 e0       	ldi	r23, 0x00	; 0
    289c:	80 e8       	ldi	r24, 0x80	; 128
    289e:	9f e3       	ldi	r25, 0x3F	; 63
    28a0:	08 95       	ret
    28a2:	4f e7       	ldi	r20, 0x7F	; 127
    28a4:	9f 77       	andi	r25, 0x7F	; 127
    28a6:	5f 93       	push	r21
    28a8:	4f 93       	push	r20
    28aa:	3f 93       	push	r19
    28ac:	2f 93       	push	r18
    28ae:	0e 94 67 15 	call	0x2ace	; 0x2ace <log>
    28b2:	2f 91       	pop	r18
    28b4:	3f 91       	pop	r19
    28b6:	4f 91       	pop	r20
    28b8:	5f 91       	pop	r21
    28ba:	0e 94 a4 13 	call	0x2748	; 0x2748 <__mulsf3>
    28be:	0c 94 af 14 	jmp	0x295e	; 0x295e <exp>
    28c2:	19 f4       	brne	.+6      	; 0x28ca <pow+0xa8>
    28c4:	16 f4       	brtc	.+4      	; 0x28ca <pow+0xa8>
    28c6:	0c 94 59 13 	jmp	0x26b2	; 0x26b2 <__fp_nan>
    28ca:	0c 94 e1 14 	jmp	0x29c2	; 0x29c2 <__fp_mpack>

000028ce <sqrt>:
    28ce:	0e 94 83 13 	call	0x2706	; 0x2706 <__fp_splitA>
    28d2:	b8 f3       	brcs	.-18     	; 0x28c2 <pow+0xa0>
    28d4:	99 23       	and	r25, r25
    28d6:	c9 f3       	breq	.-14     	; 0x28ca <pow+0xa8>
    28d8:	b6 f3       	brts	.-20     	; 0x28c6 <pow+0xa4>
    28da:	9f 57       	subi	r25, 0x7F	; 127
    28dc:	55 0b       	sbc	r21, r21
    28de:	87 ff       	sbrs	r24, 7
    28e0:	0e 94 ef 14 	call	0x29de	; 0x29de <__fp_norm2>
    28e4:	00 24       	eor	r0, r0
    28e6:	a0 e6       	ldi	r26, 0x60	; 96
    28e8:	40 ea       	ldi	r20, 0xA0	; 160
    28ea:	90 01       	movw	r18, r0
    28ec:	80 58       	subi	r24, 0x80	; 128
    28ee:	56 95       	lsr	r21
    28f0:	97 95       	ror	r25
    28f2:	28 f4       	brcc	.+10     	; 0x28fe <sqrt+0x30>
    28f4:	80 5c       	subi	r24, 0xC0	; 192
    28f6:	66 0f       	add	r22, r22
    28f8:	77 1f       	adc	r23, r23
    28fa:	88 1f       	adc	r24, r24
    28fc:	20 f0       	brcs	.+8      	; 0x2906 <sqrt+0x38>
    28fe:	26 17       	cp	r18, r22
    2900:	37 07       	cpc	r19, r23
    2902:	48 07       	cpc	r20, r24
    2904:	30 f4       	brcc	.+12     	; 0x2912 <sqrt+0x44>
    2906:	62 1b       	sub	r22, r18
    2908:	73 0b       	sbc	r23, r19
    290a:	84 0b       	sbc	r24, r20
    290c:	20 29       	or	r18, r0
    290e:	31 29       	or	r19, r1
    2910:	4a 2b       	or	r20, r26
    2912:	a6 95       	lsr	r26
    2914:	17 94       	ror	r1
    2916:	07 94       	ror	r0
    2918:	20 25       	eor	r18, r0
    291a:	31 25       	eor	r19, r1
    291c:	4a 27       	eor	r20, r26
    291e:	58 f7       	brcc	.-42     	; 0x28f6 <sqrt+0x28>
    2920:	66 0f       	add	r22, r22
    2922:	77 1f       	adc	r23, r23
    2924:	88 1f       	adc	r24, r24
    2926:	20 f0       	brcs	.+8      	; 0x2930 <sqrt+0x62>
    2928:	26 17       	cp	r18, r22
    292a:	37 07       	cpc	r19, r23
    292c:	48 07       	cpc	r20, r24
    292e:	30 f4       	brcc	.+12     	; 0x293c <sqrt+0x6e>
    2930:	62 0b       	sbc	r22, r18
    2932:	73 0b       	sbc	r23, r19
    2934:	84 0b       	sbc	r24, r20
    2936:	20 0d       	add	r18, r0
    2938:	31 1d       	adc	r19, r1
    293a:	41 1d       	adc	r20, r1
    293c:	a0 95       	com	r26
    293e:	81 f7       	brne	.-32     	; 0x2920 <sqrt+0x52>
    2940:	b9 01       	movw	r22, r18
    2942:	84 2f       	mov	r24, r20
    2944:	91 58       	subi	r25, 0x81	; 129
    2946:	88 0f       	add	r24, r24
    2948:	96 95       	lsr	r25
    294a:	87 95       	ror	r24
    294c:	08 95       	ret
    294e:	29 f4       	brne	.+10     	; 0x295a <sqrt+0x8c>
    2950:	16 f0       	brts	.+4      	; 0x2956 <sqrt+0x88>
    2952:	0c 94 53 13 	jmp	0x26a6	; 0x26a6 <__fp_inf>
    2956:	0c 94 9d 13 	jmp	0x273a	; 0x273a <__fp_zero>
    295a:	0c 94 59 13 	jmp	0x26b2	; 0x26b2 <__fp_nan>

0000295e <exp>:
    295e:	0e 94 83 13 	call	0x2706	; 0x2706 <__fp_splitA>
    2962:	a8 f3       	brcs	.-22     	; 0x294e <sqrt+0x80>
    2964:	96 38       	cpi	r25, 0x86	; 134
    2966:	a0 f7       	brcc	.-24     	; 0x2950 <sqrt+0x82>
    2968:	07 f8       	bld	r0, 7
    296a:	0f 92       	push	r0
    296c:	e8 94       	clt
    296e:	2b e3       	ldi	r18, 0x3B	; 59
    2970:	3a ea       	ldi	r19, 0xAA	; 170
    2972:	48 eb       	ldi	r20, 0xB8	; 184
    2974:	5f e7       	ldi	r21, 0x7F	; 127
    2976:	0e 94 ba 13 	call	0x2774	; 0x2774 <__mulsf3_pse>
    297a:	0f 92       	push	r0
    297c:	0f 92       	push	r0
    297e:	0f 92       	push	r0
    2980:	4d b7       	in	r20, 0x3d	; 61
    2982:	5e b7       	in	r21, 0x3e	; 62
    2984:	0f 92       	push	r0
    2986:	0e 94 af 15 	call	0x2b5e	; 0x2b5e <modf>
    298a:	ec e8       	ldi	r30, 0x8C	; 140
    298c:	f0 e0       	ldi	r31, 0x00	; 0
    298e:	0e 94 f6 14 	call	0x29ec	; 0x29ec <__fp_powser>
    2992:	4f 91       	pop	r20
    2994:	5f 91       	pop	r21
    2996:	ef 91       	pop	r30
    2998:	ff 91       	pop	r31
    299a:	e5 95       	asr	r30
    299c:	ee 1f       	adc	r30, r30
    299e:	ff 1f       	adc	r31, r31
    29a0:	49 f0       	breq	.+18     	; 0x29b4 <exp+0x56>
    29a2:	fe 57       	subi	r31, 0x7E	; 126
    29a4:	e0 68       	ori	r30, 0x80	; 128
    29a6:	44 27       	eor	r20, r20
    29a8:	ee 0f       	add	r30, r30
    29aa:	44 1f       	adc	r20, r20
    29ac:	fa 95       	dec	r31
    29ae:	e1 f7       	brne	.-8      	; 0x29a8 <exp+0x4a>
    29b0:	41 95       	neg	r20
    29b2:	55 0b       	sbc	r21, r21
    29b4:	0e 94 29 15 	call	0x2a52	; 0x2a52 <ldexp>
    29b8:	0f 90       	pop	r0
    29ba:	07 fe       	sbrs	r0, 7
    29bc:	0c 94 1d 15 	jmp	0x2a3a	; 0x2a3a <inverse>
    29c0:	08 95       	ret

000029c2 <__fp_mpack>:
    29c2:	9f 3f       	cpi	r25, 0xFF	; 255
    29c4:	31 f0       	breq	.+12     	; 0x29d2 <__fp_mpack_finite+0xc>

000029c6 <__fp_mpack_finite>:
    29c6:	91 50       	subi	r25, 0x01	; 1
    29c8:	20 f4       	brcc	.+8      	; 0x29d2 <__fp_mpack_finite+0xc>
    29ca:	87 95       	ror	r24
    29cc:	77 95       	ror	r23
    29ce:	67 95       	ror	r22
    29d0:	b7 95       	ror	r27
    29d2:	88 0f       	add	r24, r24
    29d4:	91 1d       	adc	r25, r1
    29d6:	96 95       	lsr	r25
    29d8:	87 95       	ror	r24
    29da:	97 f9       	bld	r25, 7
    29dc:	08 95       	ret

000029de <__fp_norm2>:
    29de:	91 50       	subi	r25, 0x01	; 1
    29e0:	50 40       	sbci	r21, 0x00	; 0
    29e2:	66 0f       	add	r22, r22
    29e4:	77 1f       	adc	r23, r23
    29e6:	88 1f       	adc	r24, r24
    29e8:	d2 f7       	brpl	.-12     	; 0x29de <__fp_norm2>
    29ea:	08 95       	ret

000029ec <__fp_powser>:
    29ec:	df 93       	push	r29
    29ee:	cf 93       	push	r28
    29f0:	1f 93       	push	r17
    29f2:	0f 93       	push	r16
    29f4:	ff 92       	push	r15
    29f6:	ef 92       	push	r14
    29f8:	df 92       	push	r13
    29fa:	7b 01       	movw	r14, r22
    29fc:	8c 01       	movw	r16, r24
    29fe:	68 94       	set
    2a00:	06 c0       	rjmp	.+12     	; 0x2a0e <__fp_powser+0x22>
    2a02:	da 2e       	mov	r13, r26
    2a04:	ef 01       	movw	r28, r30
    2a06:	0e 94 b7 13 	call	0x276e	; 0x276e <__mulsf3x>
    2a0a:	fe 01       	movw	r30, r28
    2a0c:	e8 94       	clt
    2a0e:	a5 91       	lpm	r26, Z+
    2a10:	25 91       	lpm	r18, Z+
    2a12:	35 91       	lpm	r19, Z+
    2a14:	45 91       	lpm	r20, Z+
    2a16:	55 91       	lpm	r21, Z+
    2a18:	a6 f3       	brts	.-24     	; 0x2a02 <__fp_powser+0x16>
    2a1a:	ef 01       	movw	r28, r30
    2a1c:	0e 94 26 12 	call	0x244c	; 0x244c <__addsf3x>
    2a20:	fe 01       	movw	r30, r28
    2a22:	97 01       	movw	r18, r14
    2a24:	a8 01       	movw	r20, r16
    2a26:	da 94       	dec	r13
    2a28:	69 f7       	brne	.-38     	; 0x2a04 <__fp_powser+0x18>
    2a2a:	df 90       	pop	r13
    2a2c:	ef 90       	pop	r14
    2a2e:	ff 90       	pop	r15
    2a30:	0f 91       	pop	r16
    2a32:	1f 91       	pop	r17
    2a34:	cf 91       	pop	r28
    2a36:	df 91       	pop	r29
    2a38:	08 95       	ret

00002a3a <inverse>:
    2a3a:	9b 01       	movw	r18, r22
    2a3c:	ac 01       	movw	r20, r24
    2a3e:	60 e0       	ldi	r22, 0x00	; 0
    2a40:	70 e0       	ldi	r23, 0x00	; 0
    2a42:	80 e8       	ldi	r24, 0x80	; 128
    2a44:	9f e3       	ldi	r25, 0x3F	; 63
    2a46:	0c 94 80 12 	jmp	0x2500	; 0x2500 <__divsf3>
    2a4a:	0c 94 53 13 	jmp	0x26a6	; 0x26a6 <__fp_inf>
    2a4e:	0c 94 e1 14 	jmp	0x29c2	; 0x29c2 <__fp_mpack>

00002a52 <ldexp>:
    2a52:	0e 94 83 13 	call	0x2706	; 0x2706 <__fp_splitA>
    2a56:	d8 f3       	brcs	.-10     	; 0x2a4e <inverse+0x14>
    2a58:	99 23       	and	r25, r25
    2a5a:	c9 f3       	breq	.-14     	; 0x2a4e <inverse+0x14>
    2a5c:	94 0f       	add	r25, r20
    2a5e:	51 1d       	adc	r21, r1
    2a60:	a3 f3       	brvs	.-24     	; 0x2a4a <inverse+0x10>
    2a62:	91 50       	subi	r25, 0x01	; 1
    2a64:	50 40       	sbci	r21, 0x00	; 0
    2a66:	94 f0       	brlt	.+36     	; 0x2a8c <ldexp+0x3a>
    2a68:	59 f0       	breq	.+22     	; 0x2a80 <ldexp+0x2e>
    2a6a:	88 23       	and	r24, r24
    2a6c:	32 f0       	brmi	.+12     	; 0x2a7a <ldexp+0x28>
    2a6e:	66 0f       	add	r22, r22
    2a70:	77 1f       	adc	r23, r23
    2a72:	88 1f       	adc	r24, r24
    2a74:	91 50       	subi	r25, 0x01	; 1
    2a76:	50 40       	sbci	r21, 0x00	; 0
    2a78:	c1 f7       	brne	.-16     	; 0x2a6a <ldexp+0x18>
    2a7a:	9e 3f       	cpi	r25, 0xFE	; 254
    2a7c:	51 05       	cpc	r21, r1
    2a7e:	2c f7       	brge	.-54     	; 0x2a4a <inverse+0x10>
    2a80:	88 0f       	add	r24, r24
    2a82:	91 1d       	adc	r25, r1
    2a84:	96 95       	lsr	r25
    2a86:	87 95       	ror	r24
    2a88:	97 f9       	bld	r25, 7
    2a8a:	08 95       	ret
    2a8c:	5f 3f       	cpi	r21, 0xFF	; 255
    2a8e:	ac f0       	brlt	.+42     	; 0x2aba <ldexp+0x68>
    2a90:	98 3e       	cpi	r25, 0xE8	; 232
    2a92:	9c f0       	brlt	.+38     	; 0x2aba <ldexp+0x68>
    2a94:	bb 27       	eor	r27, r27
    2a96:	86 95       	lsr	r24
    2a98:	77 95       	ror	r23
    2a9a:	67 95       	ror	r22
    2a9c:	b7 95       	ror	r27
    2a9e:	08 f4       	brcc	.+2      	; 0x2aa2 <ldexp+0x50>
    2aa0:	b1 60       	ori	r27, 0x01	; 1
    2aa2:	93 95       	inc	r25
    2aa4:	c1 f7       	brne	.-16     	; 0x2a96 <ldexp+0x44>
    2aa6:	bb 0f       	add	r27, r27
    2aa8:	58 f7       	brcc	.-42     	; 0x2a80 <ldexp+0x2e>
    2aaa:	11 f4       	brne	.+4      	; 0x2ab0 <ldexp+0x5e>
    2aac:	60 ff       	sbrs	r22, 0
    2aae:	e8 cf       	rjmp	.-48     	; 0x2a80 <ldexp+0x2e>
    2ab0:	6f 5f       	subi	r22, 0xFF	; 255
    2ab2:	7f 4f       	sbci	r23, 0xFF	; 255
    2ab4:	8f 4f       	sbci	r24, 0xFF	; 255
    2ab6:	9f 4f       	sbci	r25, 0xFF	; 255
    2ab8:	e3 cf       	rjmp	.-58     	; 0x2a80 <ldexp+0x2e>
    2aba:	0c 94 9e 13 	jmp	0x273c	; 0x273c <__fp_szero>
    2abe:	16 f0       	brts	.+4      	; 0x2ac4 <ldexp+0x72>
    2ac0:	0c 94 e1 14 	jmp	0x29c2	; 0x29c2 <__fp_mpack>
    2ac4:	0c 94 59 13 	jmp	0x26b2	; 0x26b2 <__fp_nan>
    2ac8:	68 94       	set
    2aca:	0c 94 53 13 	jmp	0x26a6	; 0x26a6 <__fp_inf>

00002ace <log>:
    2ace:	0e 94 83 13 	call	0x2706	; 0x2706 <__fp_splitA>
    2ad2:	a8 f3       	brcs	.-22     	; 0x2abe <ldexp+0x6c>
    2ad4:	99 23       	and	r25, r25
    2ad6:	c1 f3       	breq	.-16     	; 0x2ac8 <ldexp+0x76>
    2ad8:	ae f3       	brts	.-22     	; 0x2ac4 <ldexp+0x72>
    2ada:	df 93       	push	r29
    2adc:	cf 93       	push	r28
    2ade:	1f 93       	push	r17
    2ae0:	0f 93       	push	r16
    2ae2:	ff 92       	push	r15
    2ae4:	c9 2f       	mov	r28, r25
    2ae6:	dd 27       	eor	r29, r29
    2ae8:	88 23       	and	r24, r24
    2aea:	2a f0       	brmi	.+10     	; 0x2af6 <log+0x28>
    2aec:	21 97       	sbiw	r28, 0x01	; 1
    2aee:	66 0f       	add	r22, r22
    2af0:	77 1f       	adc	r23, r23
    2af2:	88 1f       	adc	r24, r24
    2af4:	da f7       	brpl	.-10     	; 0x2aec <log+0x1e>
    2af6:	20 e0       	ldi	r18, 0x00	; 0
    2af8:	30 e0       	ldi	r19, 0x00	; 0
    2afa:	40 e8       	ldi	r20, 0x80	; 128
    2afc:	5f eb       	ldi	r21, 0xBF	; 191
    2afe:	9f e3       	ldi	r25, 0x3F	; 63
    2b00:	88 39       	cpi	r24, 0x98	; 152
    2b02:	20 f0       	brcs	.+8      	; 0x2b0c <log+0x3e>
    2b04:	80 3e       	cpi	r24, 0xE0	; 224
    2b06:	38 f0       	brcs	.+14     	; 0x2b16 <log+0x48>
    2b08:	21 96       	adiw	r28, 0x01	; 1
    2b0a:	8f 77       	andi	r24, 0x7F	; 127
    2b0c:	0e 94 0f 12 	call	0x241e	; 0x241e <__addsf3>
    2b10:	e4 eb       	ldi	r30, 0xB4	; 180
    2b12:	f0 e0       	ldi	r31, 0x00	; 0
    2b14:	04 c0       	rjmp	.+8      	; 0x2b1e <log+0x50>
    2b16:	0e 94 0f 12 	call	0x241e	; 0x241e <__addsf3>
    2b1a:	e1 ee       	ldi	r30, 0xE1	; 225
    2b1c:	f0 e0       	ldi	r31, 0x00	; 0
    2b1e:	0e 94 f6 14 	call	0x29ec	; 0x29ec <__fp_powser>
    2b22:	8b 01       	movw	r16, r22
    2b24:	be 01       	movw	r22, r28
    2b26:	ec 01       	movw	r28, r24
    2b28:	fb 2e       	mov	r15, r27
    2b2a:	6f 57       	subi	r22, 0x7F	; 127
    2b2c:	71 09       	sbc	r23, r1
    2b2e:	75 95       	asr	r23
    2b30:	77 1f       	adc	r23, r23
    2b32:	88 0b       	sbc	r24, r24
    2b34:	99 0b       	sbc	r25, r25
    2b36:	0e 94 f4 12 	call	0x25e8	; 0x25e8 <__floatsisf>
    2b3a:	28 e1       	ldi	r18, 0x18	; 24
    2b3c:	32 e7       	ldi	r19, 0x72	; 114
    2b3e:	41 e3       	ldi	r20, 0x31	; 49
    2b40:	5f e3       	ldi	r21, 0x3F	; 63
    2b42:	0e 94 b7 13 	call	0x276e	; 0x276e <__mulsf3x>
    2b46:	af 2d       	mov	r26, r15
    2b48:	98 01       	movw	r18, r16
    2b4a:	ae 01       	movw	r20, r28
    2b4c:	ff 90       	pop	r15
    2b4e:	0f 91       	pop	r16
    2b50:	1f 91       	pop	r17
    2b52:	cf 91       	pop	r28
    2b54:	df 91       	pop	r29
    2b56:	0e 94 26 12 	call	0x244c	; 0x244c <__addsf3x>
    2b5a:	0c 94 6a 13 	jmp	0x26d4	; 0x26d4 <__fp_round>

00002b5e <modf>:
    2b5e:	fa 01       	movw	r30, r20
    2b60:	dc 01       	movw	r26, r24
    2b62:	aa 0f       	add	r26, r26
    2b64:	bb 1f       	adc	r27, r27
    2b66:	9b 01       	movw	r18, r22
    2b68:	ac 01       	movw	r20, r24
    2b6a:	bf 57       	subi	r27, 0x7F	; 127
    2b6c:	28 f4       	brcc	.+10     	; 0x2b78 <modf+0x1a>
    2b6e:	22 27       	eor	r18, r18
    2b70:	33 27       	eor	r19, r19
    2b72:	44 27       	eor	r20, r20
    2b74:	50 78       	andi	r21, 0x80	; 128
    2b76:	20 c0       	rjmp	.+64     	; 0x2bb8 <modf+0x5a>
    2b78:	b7 51       	subi	r27, 0x17	; 23
    2b7a:	90 f4       	brcc	.+36     	; 0x2ba0 <modf+0x42>
    2b7c:	ab 2f       	mov	r26, r27
    2b7e:	00 24       	eor	r0, r0
    2b80:	46 95       	lsr	r20
    2b82:	37 95       	ror	r19
    2b84:	27 95       	ror	r18
    2b86:	01 1c       	adc	r0, r1
    2b88:	a3 95       	inc	r26
    2b8a:	d2 f3       	brmi	.-12     	; 0x2b80 <modf+0x22>
    2b8c:	00 20       	and	r0, r0
    2b8e:	71 f0       	breq	.+28     	; 0x2bac <modf+0x4e>
    2b90:	22 0f       	add	r18, r18
    2b92:	33 1f       	adc	r19, r19
    2b94:	44 1f       	adc	r20, r20
    2b96:	b3 95       	inc	r27
    2b98:	da f3       	brmi	.-10     	; 0x2b90 <modf+0x32>
    2b9a:	0e d0       	rcall	.+28     	; 0x2bb8 <modf+0x5a>
    2b9c:	0c 94 0e 12 	jmp	0x241c	; 0x241c <__subsf3>
    2ba0:	61 30       	cpi	r22, 0x01	; 1
    2ba2:	71 05       	cpc	r23, r1
    2ba4:	a0 e8       	ldi	r26, 0x80	; 128
    2ba6:	8a 07       	cpc	r24, r26
    2ba8:	b9 46       	sbci	r27, 0x69	; 105
    2baa:	30 f4       	brcc	.+12     	; 0x2bb8 <modf+0x5a>
    2bac:	9b 01       	movw	r18, r22
    2bae:	ac 01       	movw	r20, r24
    2bb0:	66 27       	eor	r22, r22
    2bb2:	77 27       	eor	r23, r23
    2bb4:	88 27       	eor	r24, r24
    2bb6:	90 78       	andi	r25, 0x80	; 128
    2bb8:	30 96       	adiw	r30, 0x00	; 0
    2bba:	21 f0       	breq	.+8      	; 0x2bc4 <modf+0x66>
    2bbc:	20 83       	st	Z, r18
    2bbe:	31 83       	std	Z+1, r19	; 0x01
    2bc0:	42 83       	std	Z+2, r20	; 0x02
    2bc2:	53 83       	std	Z+3, r21	; 0x03
    2bc4:	08 95       	ret

00002bc6 <__ftoa_engine>:
    2bc6:	28 30       	cpi	r18, 0x08	; 8
    2bc8:	08 f0       	brcs	.+2      	; 0x2bcc <__ftoa_engine+0x6>
    2bca:	27 e0       	ldi	r18, 0x07	; 7
    2bcc:	33 27       	eor	r19, r19
    2bce:	da 01       	movw	r26, r20
    2bd0:	99 0f       	add	r25, r25
    2bd2:	31 1d       	adc	r19, r1
    2bd4:	87 fd       	sbrc	r24, 7
    2bd6:	91 60       	ori	r25, 0x01	; 1
    2bd8:	00 96       	adiw	r24, 0x00	; 0
    2bda:	61 05       	cpc	r22, r1
    2bdc:	71 05       	cpc	r23, r1
    2bde:	39 f4       	brne	.+14     	; 0x2bee <__ftoa_engine+0x28>
    2be0:	32 60       	ori	r19, 0x02	; 2
    2be2:	2e 5f       	subi	r18, 0xFE	; 254
    2be4:	3d 93       	st	X+, r19
    2be6:	30 e3       	ldi	r19, 0x30	; 48
    2be8:	2a 95       	dec	r18
    2bea:	e1 f7       	brne	.-8      	; 0x2be4 <__ftoa_engine+0x1e>
    2bec:	08 95       	ret
    2bee:	9f 3f       	cpi	r25, 0xFF	; 255
    2bf0:	30 f0       	brcs	.+12     	; 0x2bfe <__ftoa_engine+0x38>
    2bf2:	80 38       	cpi	r24, 0x80	; 128
    2bf4:	71 05       	cpc	r23, r1
    2bf6:	61 05       	cpc	r22, r1
    2bf8:	09 f0       	breq	.+2      	; 0x2bfc <__ftoa_engine+0x36>
    2bfa:	3c 5f       	subi	r19, 0xFC	; 252
    2bfc:	3c 5f       	subi	r19, 0xFC	; 252
    2bfe:	3d 93       	st	X+, r19
    2c00:	91 30       	cpi	r25, 0x01	; 1
    2c02:	08 f0       	brcs	.+2      	; 0x2c06 <__ftoa_engine+0x40>
    2c04:	80 68       	ori	r24, 0x80	; 128
    2c06:	91 1d       	adc	r25, r1
    2c08:	df 93       	push	r29
    2c0a:	cf 93       	push	r28
    2c0c:	1f 93       	push	r17
    2c0e:	0f 93       	push	r16
    2c10:	ff 92       	push	r15
    2c12:	ef 92       	push	r14
    2c14:	19 2f       	mov	r17, r25
    2c16:	98 7f       	andi	r25, 0xF8	; 248
    2c18:	96 95       	lsr	r25
    2c1a:	e9 2f       	mov	r30, r25
    2c1c:	96 95       	lsr	r25
    2c1e:	96 95       	lsr	r25
    2c20:	e9 0f       	add	r30, r25
    2c22:	ff 27       	eor	r31, r31
    2c24:	e0 59       	subi	r30, 0x90	; 144
    2c26:	fe 4f       	sbci	r31, 0xFE	; 254
    2c28:	99 27       	eor	r25, r25
    2c2a:	33 27       	eor	r19, r19
    2c2c:	ee 24       	eor	r14, r14
    2c2e:	ff 24       	eor	r15, r15
    2c30:	a7 01       	movw	r20, r14
    2c32:	e7 01       	movw	r28, r14
    2c34:	05 90       	lpm	r0, Z+
    2c36:	08 94       	sec
    2c38:	07 94       	ror	r0
    2c3a:	28 f4       	brcc	.+10     	; 0x2c46 <__ftoa_engine+0x80>
    2c3c:	36 0f       	add	r19, r22
    2c3e:	e7 1e       	adc	r14, r23
    2c40:	f8 1e       	adc	r15, r24
    2c42:	49 1f       	adc	r20, r25
    2c44:	51 1d       	adc	r21, r1
    2c46:	66 0f       	add	r22, r22
    2c48:	77 1f       	adc	r23, r23
    2c4a:	88 1f       	adc	r24, r24
    2c4c:	99 1f       	adc	r25, r25
    2c4e:	06 94       	lsr	r0
    2c50:	a1 f7       	brne	.-24     	; 0x2c3a <__ftoa_engine+0x74>
    2c52:	05 90       	lpm	r0, Z+
    2c54:	07 94       	ror	r0
    2c56:	28 f4       	brcc	.+10     	; 0x2c62 <__ftoa_engine+0x9c>
    2c58:	e7 0e       	add	r14, r23
    2c5a:	f8 1e       	adc	r15, r24
    2c5c:	49 1f       	adc	r20, r25
    2c5e:	56 1f       	adc	r21, r22
    2c60:	c1 1d       	adc	r28, r1
    2c62:	77 0f       	add	r23, r23
    2c64:	88 1f       	adc	r24, r24
    2c66:	99 1f       	adc	r25, r25
    2c68:	66 1f       	adc	r22, r22
    2c6a:	06 94       	lsr	r0
    2c6c:	a1 f7       	brne	.-24     	; 0x2c56 <__ftoa_engine+0x90>
    2c6e:	05 90       	lpm	r0, Z+
    2c70:	07 94       	ror	r0
    2c72:	28 f4       	brcc	.+10     	; 0x2c7e <__ftoa_engine+0xb8>
    2c74:	f8 0e       	add	r15, r24
    2c76:	49 1f       	adc	r20, r25
    2c78:	56 1f       	adc	r21, r22
    2c7a:	c7 1f       	adc	r28, r23
    2c7c:	d1 1d       	adc	r29, r1
    2c7e:	88 0f       	add	r24, r24
    2c80:	99 1f       	adc	r25, r25
    2c82:	66 1f       	adc	r22, r22
    2c84:	77 1f       	adc	r23, r23
    2c86:	06 94       	lsr	r0
    2c88:	a1 f7       	brne	.-24     	; 0x2c72 <__ftoa_engine+0xac>
    2c8a:	05 90       	lpm	r0, Z+
    2c8c:	07 94       	ror	r0
    2c8e:	20 f4       	brcc	.+8      	; 0x2c98 <__ftoa_engine+0xd2>
    2c90:	49 0f       	add	r20, r25
    2c92:	56 1f       	adc	r21, r22
    2c94:	c7 1f       	adc	r28, r23
    2c96:	d8 1f       	adc	r29, r24
    2c98:	99 0f       	add	r25, r25
    2c9a:	66 1f       	adc	r22, r22
    2c9c:	77 1f       	adc	r23, r23
    2c9e:	88 1f       	adc	r24, r24
    2ca0:	06 94       	lsr	r0
    2ca2:	a9 f7       	brne	.-22     	; 0x2c8e <__ftoa_engine+0xc8>
    2ca4:	84 91       	lpm	r24, Z
    2ca6:	10 95       	com	r17
    2ca8:	17 70       	andi	r17, 0x07	; 7
    2caa:	41 f0       	breq	.+16     	; 0x2cbc <__ftoa_engine+0xf6>
    2cac:	d6 95       	lsr	r29
    2cae:	c7 95       	ror	r28
    2cb0:	57 95       	ror	r21
    2cb2:	47 95       	ror	r20
    2cb4:	f7 94       	ror	r15
    2cb6:	e7 94       	ror	r14
    2cb8:	1a 95       	dec	r17
    2cba:	c1 f7       	brne	.-16     	; 0x2cac <__ftoa_engine+0xe6>
    2cbc:	e6 e1       	ldi	r30, 0x16	; 22
    2cbe:	f1 e0       	ldi	r31, 0x01	; 1
    2cc0:	68 94       	set
    2cc2:	15 90       	lpm	r1, Z+
    2cc4:	15 91       	lpm	r17, Z+
    2cc6:	35 91       	lpm	r19, Z+
    2cc8:	65 91       	lpm	r22, Z+
    2cca:	95 91       	lpm	r25, Z+
    2ccc:	05 90       	lpm	r0, Z+
    2cce:	7f e2       	ldi	r23, 0x2F	; 47
    2cd0:	73 95       	inc	r23
    2cd2:	e1 18       	sub	r14, r1
    2cd4:	f1 0a       	sbc	r15, r17
    2cd6:	43 0b       	sbc	r20, r19
    2cd8:	56 0b       	sbc	r21, r22
    2cda:	c9 0b       	sbc	r28, r25
    2cdc:	d0 09       	sbc	r29, r0
    2cde:	c0 f7       	brcc	.-16     	; 0x2cd0 <__ftoa_engine+0x10a>
    2ce0:	e1 0c       	add	r14, r1
    2ce2:	f1 1e       	adc	r15, r17
    2ce4:	43 1f       	adc	r20, r19
    2ce6:	56 1f       	adc	r21, r22
    2ce8:	c9 1f       	adc	r28, r25
    2cea:	d0 1d       	adc	r29, r0
    2cec:	7e f4       	brtc	.+30     	; 0x2d0c <__ftoa_engine+0x146>
    2cee:	70 33       	cpi	r23, 0x30	; 48
    2cf0:	11 f4       	brne	.+4      	; 0x2cf6 <__ftoa_engine+0x130>
    2cf2:	8a 95       	dec	r24
    2cf4:	e6 cf       	rjmp	.-52     	; 0x2cc2 <__ftoa_engine+0xfc>
    2cf6:	e8 94       	clt
    2cf8:	01 50       	subi	r16, 0x01	; 1
    2cfa:	30 f0       	brcs	.+12     	; 0x2d08 <__ftoa_engine+0x142>
    2cfc:	08 0f       	add	r16, r24
    2cfe:	0a f4       	brpl	.+2      	; 0x2d02 <__ftoa_engine+0x13c>
    2d00:	00 27       	eor	r16, r16
    2d02:	02 17       	cp	r16, r18
    2d04:	08 f4       	brcc	.+2      	; 0x2d08 <__ftoa_engine+0x142>
    2d06:	20 2f       	mov	r18, r16
    2d08:	23 95       	inc	r18
    2d0a:	02 2f       	mov	r16, r18
    2d0c:	7a 33       	cpi	r23, 0x3A	; 58
    2d0e:	28 f0       	brcs	.+10     	; 0x2d1a <__ftoa_engine+0x154>
    2d10:	79 e3       	ldi	r23, 0x39	; 57
    2d12:	7d 93       	st	X+, r23
    2d14:	2a 95       	dec	r18
    2d16:	e9 f7       	brne	.-6      	; 0x2d12 <__ftoa_engine+0x14c>
    2d18:	10 c0       	rjmp	.+32     	; 0x2d3a <__ftoa_engine+0x174>
    2d1a:	7d 93       	st	X+, r23
    2d1c:	2a 95       	dec	r18
    2d1e:	89 f6       	brne	.-94     	; 0x2cc2 <__ftoa_engine+0xfc>
    2d20:	06 94       	lsr	r0
    2d22:	97 95       	ror	r25
    2d24:	67 95       	ror	r22
    2d26:	37 95       	ror	r19
    2d28:	17 95       	ror	r17
    2d2a:	17 94       	ror	r1
    2d2c:	e1 18       	sub	r14, r1
    2d2e:	f1 0a       	sbc	r15, r17
    2d30:	43 0b       	sbc	r20, r19
    2d32:	56 0b       	sbc	r21, r22
    2d34:	c9 0b       	sbc	r28, r25
    2d36:	d0 09       	sbc	r29, r0
    2d38:	98 f0       	brcs	.+38     	; 0x2d60 <__ftoa_engine+0x19a>
    2d3a:	23 95       	inc	r18
    2d3c:	7e 91       	ld	r23, -X
    2d3e:	73 95       	inc	r23
    2d40:	7a 33       	cpi	r23, 0x3A	; 58
    2d42:	08 f0       	brcs	.+2      	; 0x2d46 <__ftoa_engine+0x180>
    2d44:	70 e3       	ldi	r23, 0x30	; 48
    2d46:	7c 93       	st	X, r23
    2d48:	20 13       	cpse	r18, r16
    2d4a:	b8 f7       	brcc	.-18     	; 0x2d3a <__ftoa_engine+0x174>
    2d4c:	7e 91       	ld	r23, -X
    2d4e:	70 61       	ori	r23, 0x10	; 16
    2d50:	7d 93       	st	X+, r23
    2d52:	30 f0       	brcs	.+12     	; 0x2d60 <__ftoa_engine+0x19a>
    2d54:	83 95       	inc	r24
    2d56:	71 e3       	ldi	r23, 0x31	; 49
    2d58:	7d 93       	st	X+, r23
    2d5a:	70 e3       	ldi	r23, 0x30	; 48
    2d5c:	2a 95       	dec	r18
    2d5e:	e1 f7       	brne	.-8      	; 0x2d58 <__ftoa_engine+0x192>
    2d60:	11 24       	eor	r1, r1
    2d62:	ef 90       	pop	r14
    2d64:	ff 90       	pop	r15
    2d66:	0f 91       	pop	r16
    2d68:	1f 91       	pop	r17
    2d6a:	cf 91       	pop	r28
    2d6c:	df 91       	pop	r29
    2d6e:	99 27       	eor	r25, r25
    2d70:	87 fd       	sbrc	r24, 7
    2d72:	90 95       	com	r25
    2d74:	08 95       	ret

00002d76 <strnlen_P>:
    2d76:	fc 01       	movw	r30, r24
    2d78:	05 90       	lpm	r0, Z+
    2d7a:	61 50       	subi	r22, 0x01	; 1
    2d7c:	70 40       	sbci	r23, 0x00	; 0
    2d7e:	01 10       	cpse	r0, r1
    2d80:	d8 f7       	brcc	.-10     	; 0x2d78 <strnlen_P+0x2>
    2d82:	80 95       	com	r24
    2d84:	90 95       	com	r25
    2d86:	8e 0f       	add	r24, r30
    2d88:	9f 1f       	adc	r25, r31
    2d8a:	08 95       	ret

00002d8c <strnlen>:
    2d8c:	fc 01       	movw	r30, r24
    2d8e:	61 50       	subi	r22, 0x01	; 1
    2d90:	70 40       	sbci	r23, 0x00	; 0
    2d92:	01 90       	ld	r0, Z+
    2d94:	01 10       	cpse	r0, r1
    2d96:	d8 f7       	brcc	.-10     	; 0x2d8e <strnlen+0x2>
    2d98:	80 95       	com	r24
    2d9a:	90 95       	com	r25
    2d9c:	8e 0f       	add	r24, r30
    2d9e:	9f 1f       	adc	r25, r31
    2da0:	08 95       	ret

00002da2 <fputc>:
    2da2:	0f 93       	push	r16
    2da4:	1f 93       	push	r17
    2da6:	cf 93       	push	r28
    2da8:	df 93       	push	r29
    2daa:	fb 01       	movw	r30, r22
    2dac:	23 81       	ldd	r18, Z+3	; 0x03
    2dae:	21 fd       	sbrc	r18, 1
    2db0:	03 c0       	rjmp	.+6      	; 0x2db8 <fputc+0x16>
    2db2:	8f ef       	ldi	r24, 0xFF	; 255
    2db4:	9f ef       	ldi	r25, 0xFF	; 255
    2db6:	28 c0       	rjmp	.+80     	; 0x2e08 <fputc+0x66>
    2db8:	22 ff       	sbrs	r18, 2
    2dba:	16 c0       	rjmp	.+44     	; 0x2de8 <fputc+0x46>
    2dbc:	46 81       	ldd	r20, Z+6	; 0x06
    2dbe:	57 81       	ldd	r21, Z+7	; 0x07
    2dc0:	24 81       	ldd	r18, Z+4	; 0x04
    2dc2:	35 81       	ldd	r19, Z+5	; 0x05
    2dc4:	42 17       	cp	r20, r18
    2dc6:	53 07       	cpc	r21, r19
    2dc8:	44 f4       	brge	.+16     	; 0x2dda <fputc+0x38>
    2dca:	a0 81       	ld	r26, Z
    2dcc:	b1 81       	ldd	r27, Z+1	; 0x01
    2dce:	9d 01       	movw	r18, r26
    2dd0:	2f 5f       	subi	r18, 0xFF	; 255
    2dd2:	3f 4f       	sbci	r19, 0xFF	; 255
    2dd4:	31 83       	std	Z+1, r19	; 0x01
    2dd6:	20 83       	st	Z, r18
    2dd8:	8c 93       	st	X, r24
    2dda:	26 81       	ldd	r18, Z+6	; 0x06
    2ddc:	37 81       	ldd	r19, Z+7	; 0x07
    2dde:	2f 5f       	subi	r18, 0xFF	; 255
    2de0:	3f 4f       	sbci	r19, 0xFF	; 255
    2de2:	37 83       	std	Z+7, r19	; 0x07
    2de4:	26 83       	std	Z+6, r18	; 0x06
    2de6:	10 c0       	rjmp	.+32     	; 0x2e08 <fputc+0x66>
    2de8:	eb 01       	movw	r28, r22
    2dea:	09 2f       	mov	r16, r25
    2dec:	18 2f       	mov	r17, r24
    2dee:	00 84       	ldd	r0, Z+8	; 0x08
    2df0:	f1 85       	ldd	r31, Z+9	; 0x09
    2df2:	e0 2d       	mov	r30, r0
    2df4:	09 95       	icall
    2df6:	89 2b       	or	r24, r25
    2df8:	e1 f6       	brne	.-72     	; 0x2db2 <fputc+0x10>
    2dfa:	8e 81       	ldd	r24, Y+6	; 0x06
    2dfc:	9f 81       	ldd	r25, Y+7	; 0x07
    2dfe:	01 96       	adiw	r24, 0x01	; 1
    2e00:	9f 83       	std	Y+7, r25	; 0x07
    2e02:	8e 83       	std	Y+6, r24	; 0x06
    2e04:	81 2f       	mov	r24, r17
    2e06:	90 2f       	mov	r25, r16
    2e08:	df 91       	pop	r29
    2e0a:	cf 91       	pop	r28
    2e0c:	1f 91       	pop	r17
    2e0e:	0f 91       	pop	r16
    2e10:	08 95       	ret

00002e12 <printf>:
    2e12:	cf 93       	push	r28
    2e14:	df 93       	push	r29
    2e16:	cd b7       	in	r28, 0x3d	; 61
    2e18:	de b7       	in	r29, 0x3e	; 62
    2e1a:	ae 01       	movw	r20, r28
    2e1c:	4b 5f       	subi	r20, 0xFB	; 251
    2e1e:	5f 4f       	sbci	r21, 0xFF	; 255
    2e20:	fa 01       	movw	r30, r20
    2e22:	61 91       	ld	r22, Z+
    2e24:	71 91       	ld	r23, Z+
    2e26:	af 01       	movw	r20, r30
    2e28:	80 91 fd 01 	lds	r24, 0x01FD	; 0x8001fd <__iob+0x2>
    2e2c:	90 91 fe 01 	lds	r25, 0x01FE	; 0x8001fe <__iob+0x3>
    2e30:	0e 94 d3 0d 	call	0x1ba6	; 0x1ba6 <vfprintf>
    2e34:	df 91       	pop	r29
    2e36:	cf 91       	pop	r28
    2e38:	08 95       	ret

00002e3a <puts>:
    2e3a:	0f 93       	push	r16
    2e3c:	1f 93       	push	r17
    2e3e:	cf 93       	push	r28
    2e40:	df 93       	push	r29
    2e42:	e0 91 fd 01 	lds	r30, 0x01FD	; 0x8001fd <__iob+0x2>
    2e46:	f0 91 fe 01 	lds	r31, 0x01FE	; 0x8001fe <__iob+0x3>
    2e4a:	23 81       	ldd	r18, Z+3	; 0x03
    2e4c:	21 ff       	sbrs	r18, 1
    2e4e:	1b c0       	rjmp	.+54     	; 0x2e86 <puts+0x4c>
    2e50:	8c 01       	movw	r16, r24
    2e52:	d0 e0       	ldi	r29, 0x00	; 0
    2e54:	c0 e0       	ldi	r28, 0x00	; 0
    2e56:	f8 01       	movw	r30, r16
    2e58:	81 91       	ld	r24, Z+
    2e5a:	8f 01       	movw	r16, r30
    2e5c:	60 91 fd 01 	lds	r22, 0x01FD	; 0x8001fd <__iob+0x2>
    2e60:	70 91 fe 01 	lds	r23, 0x01FE	; 0x8001fe <__iob+0x3>
    2e64:	db 01       	movw	r26, r22
    2e66:	18 96       	adiw	r26, 0x08	; 8
    2e68:	ed 91       	ld	r30, X+
    2e6a:	fc 91       	ld	r31, X
    2e6c:	19 97       	sbiw	r26, 0x09	; 9
    2e6e:	88 23       	and	r24, r24
    2e70:	31 f0       	breq	.+12     	; 0x2e7e <puts+0x44>
    2e72:	09 95       	icall
    2e74:	89 2b       	or	r24, r25
    2e76:	79 f3       	breq	.-34     	; 0x2e56 <puts+0x1c>
    2e78:	df ef       	ldi	r29, 0xFF	; 255
    2e7a:	cf ef       	ldi	r28, 0xFF	; 255
    2e7c:	ec cf       	rjmp	.-40     	; 0x2e56 <puts+0x1c>
    2e7e:	8a e0       	ldi	r24, 0x0A	; 10
    2e80:	09 95       	icall
    2e82:	89 2b       	or	r24, r25
    2e84:	19 f0       	breq	.+6      	; 0x2e8c <puts+0x52>
    2e86:	8f ef       	ldi	r24, 0xFF	; 255
    2e88:	9f ef       	ldi	r25, 0xFF	; 255
    2e8a:	02 c0       	rjmp	.+4      	; 0x2e90 <puts+0x56>
    2e8c:	8d 2f       	mov	r24, r29
    2e8e:	9c 2f       	mov	r25, r28
    2e90:	df 91       	pop	r29
    2e92:	cf 91       	pop	r28
    2e94:	1f 91       	pop	r17
    2e96:	0f 91       	pop	r16
    2e98:	08 95       	ret

00002e9a <__ultoa_invert>:
    2e9a:	fa 01       	movw	r30, r20
    2e9c:	aa 27       	eor	r26, r26
    2e9e:	28 30       	cpi	r18, 0x08	; 8
    2ea0:	51 f1       	breq	.+84     	; 0x2ef6 <__ultoa_invert+0x5c>
    2ea2:	20 31       	cpi	r18, 0x10	; 16
    2ea4:	81 f1       	breq	.+96     	; 0x2f06 <__ultoa_invert+0x6c>
    2ea6:	e8 94       	clt
    2ea8:	6f 93       	push	r22
    2eaa:	6e 7f       	andi	r22, 0xFE	; 254
    2eac:	6e 5f       	subi	r22, 0xFE	; 254
    2eae:	7f 4f       	sbci	r23, 0xFF	; 255
    2eb0:	8f 4f       	sbci	r24, 0xFF	; 255
    2eb2:	9f 4f       	sbci	r25, 0xFF	; 255
    2eb4:	af 4f       	sbci	r26, 0xFF	; 255
    2eb6:	b1 e0       	ldi	r27, 0x01	; 1
    2eb8:	3e d0       	rcall	.+124    	; 0x2f36 <__ultoa_invert+0x9c>
    2eba:	b4 e0       	ldi	r27, 0x04	; 4
    2ebc:	3c d0       	rcall	.+120    	; 0x2f36 <__ultoa_invert+0x9c>
    2ebe:	67 0f       	add	r22, r23
    2ec0:	78 1f       	adc	r23, r24
    2ec2:	89 1f       	adc	r24, r25
    2ec4:	9a 1f       	adc	r25, r26
    2ec6:	a1 1d       	adc	r26, r1
    2ec8:	68 0f       	add	r22, r24
    2eca:	79 1f       	adc	r23, r25
    2ecc:	8a 1f       	adc	r24, r26
    2ece:	91 1d       	adc	r25, r1
    2ed0:	a1 1d       	adc	r26, r1
    2ed2:	6a 0f       	add	r22, r26
    2ed4:	71 1d       	adc	r23, r1
    2ed6:	81 1d       	adc	r24, r1
    2ed8:	91 1d       	adc	r25, r1
    2eda:	a1 1d       	adc	r26, r1
    2edc:	20 d0       	rcall	.+64     	; 0x2f1e <__ultoa_invert+0x84>
    2ede:	09 f4       	brne	.+2      	; 0x2ee2 <__ultoa_invert+0x48>
    2ee0:	68 94       	set
    2ee2:	3f 91       	pop	r19
    2ee4:	2a e0       	ldi	r18, 0x0A	; 10
    2ee6:	26 9f       	mul	r18, r22
    2ee8:	11 24       	eor	r1, r1
    2eea:	30 19       	sub	r19, r0
    2eec:	30 5d       	subi	r19, 0xD0	; 208
    2eee:	31 93       	st	Z+, r19
    2ef0:	de f6       	brtc	.-74     	; 0x2ea8 <__ultoa_invert+0xe>
    2ef2:	cf 01       	movw	r24, r30
    2ef4:	08 95       	ret
    2ef6:	46 2f       	mov	r20, r22
    2ef8:	47 70       	andi	r20, 0x07	; 7
    2efa:	40 5d       	subi	r20, 0xD0	; 208
    2efc:	41 93       	st	Z+, r20
    2efe:	b3 e0       	ldi	r27, 0x03	; 3
    2f00:	0f d0       	rcall	.+30     	; 0x2f20 <__ultoa_invert+0x86>
    2f02:	c9 f7       	brne	.-14     	; 0x2ef6 <__ultoa_invert+0x5c>
    2f04:	f6 cf       	rjmp	.-20     	; 0x2ef2 <__ultoa_invert+0x58>
    2f06:	46 2f       	mov	r20, r22
    2f08:	4f 70       	andi	r20, 0x0F	; 15
    2f0a:	40 5d       	subi	r20, 0xD0	; 208
    2f0c:	4a 33       	cpi	r20, 0x3A	; 58
    2f0e:	18 f0       	brcs	.+6      	; 0x2f16 <__ultoa_invert+0x7c>
    2f10:	49 5d       	subi	r20, 0xD9	; 217
    2f12:	31 fd       	sbrc	r19, 1
    2f14:	40 52       	subi	r20, 0x20	; 32
    2f16:	41 93       	st	Z+, r20
    2f18:	02 d0       	rcall	.+4      	; 0x2f1e <__ultoa_invert+0x84>
    2f1a:	a9 f7       	brne	.-22     	; 0x2f06 <__ultoa_invert+0x6c>
    2f1c:	ea cf       	rjmp	.-44     	; 0x2ef2 <__ultoa_invert+0x58>
    2f1e:	b4 e0       	ldi	r27, 0x04	; 4
    2f20:	a6 95       	lsr	r26
    2f22:	97 95       	ror	r25
    2f24:	87 95       	ror	r24
    2f26:	77 95       	ror	r23
    2f28:	67 95       	ror	r22
    2f2a:	ba 95       	dec	r27
    2f2c:	c9 f7       	brne	.-14     	; 0x2f20 <__ultoa_invert+0x86>
    2f2e:	00 97       	sbiw	r24, 0x00	; 0
    2f30:	61 05       	cpc	r22, r1
    2f32:	71 05       	cpc	r23, r1
    2f34:	08 95       	ret
    2f36:	9b 01       	movw	r18, r22
    2f38:	ac 01       	movw	r20, r24
    2f3a:	0a 2e       	mov	r0, r26
    2f3c:	06 94       	lsr	r0
    2f3e:	57 95       	ror	r21
    2f40:	47 95       	ror	r20
    2f42:	37 95       	ror	r19
    2f44:	27 95       	ror	r18
    2f46:	ba 95       	dec	r27
    2f48:	c9 f7       	brne	.-14     	; 0x2f3c <__ultoa_invert+0xa2>
    2f4a:	62 0f       	add	r22, r18
    2f4c:	73 1f       	adc	r23, r19
    2f4e:	84 1f       	adc	r24, r20
    2f50:	95 1f       	adc	r25, r21
    2f52:	a0 1d       	adc	r26, r0
    2f54:	08 95       	ret

00002f56 <_exit>:
    2f56:	f8 94       	cli

00002f58 <__stop_program>:
    2f58:	ff cf       	rjmp	.-2      	; 0x2f58 <__stop_program>
